(dp1
S'talk_options'
p2
(lp3
sS'allunits'
p4
(lp5
(dp6
S'ai'
p7
S'None'
p8
sS'growths'
p9
(lp10
I80
aI35
aI0
aI55
aI55
aI30
aI20
aI20
aI0
aI0
asS'dead'
p11
I00
sS'items'
p12
(lp13
(dp14
S'c_uses'
p15
NsS'locked'
p16
I00
sS'droppable'
p17
I00
sS'uses'
p18
I44
sS'event_combat'
p19
I00
sS'owner'
p20
S'Jaeger'
p21
sS'id'
p22
S'Iron Sword'
p23
sasS'growth_points'
p24
(lp25
I50
aI50
aI50
aI50
aI50
aI50
aI50
aI50
aI50
aI50
asS'currenthp'
p26
I11
sS'stats'
p27
(lp28
(I16
I0
tp29
a(I8
I0
tp30
a(I2
I0
tp31
a(I13
I0
tp32
a(I14
I0
tp33
a(I7
I0
tp34
a(I5
I0
tp35
a(I2
I0
tp36
a(I8
I0
tp37
a(I5
I0
tp38
asS'event_id'
p39
S'0'
sS'desc'
p40
S'A strong-hearted renegade who often acts before he thinks.'
p41
sS'tags'
p42
c__builtin__
set
p43
((lp44
S'Lord'
p45
atRp46
sS'status_effects'
p47
(lp48
(dp49
S'count'
p50
NsS'time_left'
p51
NsS'upkeep_sc_count'
p52
NsS'children'
p53
(lp54
sS'parent_id'
p55
NsS'charge'
p56
NsS'rhythm_sc_count'
p57
Nsg22
S'Riposte'
p58
sasS'records'
p59
(dp60
S'damage'
p61
I13
sS'kills'
p62
I1
sS'healing'
p63
I0
ssS'finished'
p64
I00
sS'faction_icon'
p65
S'Neutral'
p66
sS'u_id'
p67
g21
sS'wexp'
p68
(lp69
I9
aI0
aI0
aI0
aI0
aI0
aI0
asS'name'
p70
S'Jaeger'
p71
sS'movement_group'
p72
I0
sS'level'
p73
I1
sS'gender'
p74
I2
sS'TRV'
p75
I0
sS'klass'
p76
S'Myrmidon'
p77
sS'exp'
p78
I30
sS'team'
p79
S'player'
p80
sS'position'
p81
(I9
I15
tp82
sa(dp83
g7
S'None'
p84
sg9
(lp85
I50
aI15
aI60
aI25
aI40
aI60
aI15
aI55
aI0
aI0
asg11
I00
sg12
(lp86
(dp87
g15
Nsg16
I00
sg17
I00
sg18
I29
sg19
I00
sg20
S'NANC'
p88
sg22
S'Heal'
p89
sa(dp90
g15
Nsg16
I00
sg17
I00
sg18
I29
sg19
I00
sg20
g88
sg22
S'Glimmer'
p91
sasg24
(lp92
I50
aI50
aI50
aI50
aI50
aI50
aI50
aI50
aI50
aI50
asg26
I11
sg27
(lp93
(I18
I0
tp94
a(I0
I0
tp95
a(I2
I0
tp96
a(I4
I0
tp97
a(I8
I0
tp98
a(I6
I0
tp99
a(I2
I0
tp100
a(I6
I0
tp101
a(I4
I0
tp102
a(I5
I0
tp103
asg39
S'0'
sg40
S'A shy but kind-hearted young woman. Has an affinity with the spiritual.'
p104
sg42
g43
((ltRp105
sg47
(lp106
(dp107
g50
Nsg51
Nsg52
Nsg53
(lp108
sg55
Nsg56
Nsg57
Nsg22
S'Healtouch'
p109
sasg59
(dp110
g61
I0
sg62
I0
sg63
I12
ssg64
I00
sg65
g66
sg67
g88
sg68
(lp111
I0
aI0
aI0
aI0
aI3
aI0
aI0
asg70
S'NANC'
p112
sg72
I5
sg73
I1
sg74
I7
sg75
I0
sg76
S'Cleric'
p113
sg78
I9
sg79
S'player'
p114
sg81
(I8
I18
tp115
sa(dp116
g7
S'None'
p117
sg9
(lp118
I80
aI65
aI5
aI40
aI20
aI40
aI25
aI15
aI0
aI0
asg11
I00
sg12
(lp119
(dp120
g15
Nsg16
I00
sg17
I00
sg18
I41
sg19
I00
sg20
S'Kenboslice'
p121
sg22
S'Iron Axe'
p122
sa(dp123
g15
Nsg16
I00
sg17
I00
sg18
I3
sg19
I00
sg20
g121
sg22
S'Vulnerary'
p124
sasg24
(lp125
I50
aI50
aI50
aI50
aI50
aI50
aI50
aI50
aI50
aI50
asg26
I20
sg27
(lp126
(I21
I0
tp127
a(I8
I0
tp128
a(I0
I0
tp129
a(I7
I0
tp130
a(I7
I0
tp131
a(I3
I0
tp132
a(I5
I0
tp133
a(I1
I0
tp134
a(I11
I0
tp135
a(I5
I0
tp136
asg39
S'0'
sg40
S'A jovial former sailor. Always ready for a new adventure.'
p137
sg42
g43
((lp138
S'ActiveSkillCharged'
p139
atRp140
sg47
(lp141
(dp142
g50
Nsg51
Nsg52
Nsg53
(lp143
sg55
Nsg56
I15
sg57
Nsg22
S'Cleave'
p144
sasg59
(dp145
g61
I27
sg62
I1
sg63
I0
ssg64
I00
sg65
g66
sg67
g121
sg68
(lp146
I0
aI0
aI19
aI0
aI0
aI0
aI0
asg70
S'Kenboslice'
p147
sg72
I4
sg73
I1
sg74
I0
sg75
I0
sg76
S'Fighter'
p148
sg78
I41
sg79
S'player'
p149
sg81
(I8
I17
tp150
sa(dp151
g7
S'None'
p152
sg9
(lp153
I55
aI45
aI25
aI50
aI60
aI50
aI15
aI35
aI0
aI0
asg11
I00
sg12
(lp154
(dp155
g15
Nsg16
I00
sg17
I00
sg18
I43
sg19
I00
sg20
S'Olive'
p156
sg22
S'Willow Bow'
p157
sa(dp158
g15
Nsg16
I00
sg17
I00
sg18
I3
sg19
I00
sg20
g156
sg22
S'Vulnerary'
p159
sasg24
(lp160
I50
aI50
aI50
aI50
aI50
aI50
aI50
aI50
aI50
aI50
asg26
I11
sg27
(lp161
(I17
I0
tp162
a(I4
I0
tp163
a(I2
I0
tp164
a(I5
I0
tp165
a(I6
I0
tp166
a(I4
I0
tp167
a(I3
I0
tp168
a(I2
I0
tp169
a(I7
I0
tp170
a(I5
I0
tp171
asg39
S'0'
sg40
S'A quiet archer most at home in the wilderness.'
p172
sg42
g43
((ltRp173
sg47
(lp174
(dp175
g50
Nsg51
Nsg52
Nsg53
(lp176
sg55
Nsg56
Nsg57
Nsg22
S'Prescience'
p177
sasg59
(dp178
g61
I9
sg62
I0
sg63
I0
ssg64
I00
sg65
g66
sg67
g156
sg68
(lp179
I0
aI0
aI0
aI18
aI0
aI0
aI0
asg70
S'Olive'
p180
sg72
I0
sg73
I1
sg74
I6
sg75
I0
sg76
S'Archer'
p181
sg78
I21
sg79
S'player'
p182
sg81
(I16
I16
tp183
sa(dp184
g7
S'None'
p185
sg9
(lp186
I55
aI45
aI30
aI50
aI60
aI50
aI15
aI35
aI0
aI0
asg11
I00
sg12
(lp187
(dp188
g15
Nsg16
I00
sg17
I00
sg18
I28
sg19
I00
sg20
S'Mama Coco'
p189
sg22
S'Fire'
p190
sa(dp191
g15
Nsg16
I00
sg17
I00
sg18
I3
sg19
I00
sg20
g189
sg22
S'Vulnerary'
p192
sasg24
(lp193
I50
aI50
aI50
aI50
aI50
aI50
aI50
aI50
aI50
aI50
asg26
I17
sg27
(lp194
(I17
I0
tp195
a(I1
I0
tp196
a(I6
I0
tp197
a(I6
I0
tp198
a(I7
I0
tp199
a(I8
I0
tp200
a(I3
I0
tp201
a(I5
I2
tp202
a(I5
I0
tp203
a(I5
I0
tp204
asg39
S'0'
sg40
S'A forthright but elegant and refined sorceress.'
p205
sg42
g43
((ltRp206
sg47
(lp207
(dp208
g50
Nsg51
Nsg52
Nsg53
(lp209
sg55
Nsg56
Nsg57
Nsg22
S'Resistance +2'
p210
sa(dp211
g50
Nsg51
Nsg52
Nsg53
(lp212
sg55
Nsg56
Nsg57
Nsg22
S'Focus'
p213
sasg59
(dp214
g61
I7
sg62
I1
sg63
I0
ssg64
I00
sg65
g66
sg67
g189
sg68
(lp215
I0
aI0
aI0
aI0
aI0
aI8
aI0
asg70
S'Mama Coco'
p216
sg72
I5
sg73
I1
sg74
I5
sg75
I0
sg76
S'Mage'
p217
sg78
I31
sg79
S'player'
p218
sg81
(I22
I16
tp219
sa(dp220
g7
S'None'
p221
sg9
(lp222
I80
aI40
aI5
aI40
aI50
aI40
aI25
aI20
aI0
aI0
asg11
I00
sg12
(lp223
(dp224
g15
Nsg16
I00
sg17
I00
sg18
I44
sg19
I00
sg20
S'Sergio'
p225
sg22
S'Iron Lance'
p226
sa(dp227
g15
Nsg16
I00
sg17
I00
sg18
I46
sg19
I00
sg20
g225
sg22
S'Iron Sword'
p228
sasg24
(lp229
I50
aI50
aI50
aI50
aI50
aI50
aI50
aI50
aI50
aI50
asg26
I20
sg27
(lp230
(I20
I0
tp231
a(I7
I0
tp232
a(I1
I0
tp233
a(I5
I0
tp234
a(I7
I0
tp235
a(I2
I0
tp236
a(I6
I0
tp237
a(I1
I0
tp238
a(I9
I0
tp239
a(I7
I0
tp240
asg39
S'0'
sg40
S"A disgraced Imperial knight now in Althea's service."
p241
sg42
g43
((lp242
S'Mounted'
p243
atRp244
sg47
(lp245
(dp246
g50
Nsg51
Nsg52
Nsg53
(lp247
sg55
Nsg56
Nsg57
Nsg22
S'Canto'
p248
sasg59
(dp249
g61
I8
sg62
I1
sg63
I0
ssg64
I00
sg65
g66
sg67
g225
sg68
(lp250
I11
aI17
aI0
aI0
aI0
aI0
aI0
asg70
S'Sergio'
p251
sg72
I2
sg73
I1
sg74
I0
sg75
I0
sg76
S'Cavalier'
p252
sg78
I30
sg79
S'player'
p253
sg81
(I8
I14
tp254
sa(dp255
g7
S'None'
p256
sg9
(lp257
I75
aI40
aI20
aI40
aI65
aI45
aI25
aI20
aI0
aI0
asg11
I00
sg12
(lp258
(dp259
g15
Nsg16
I00
sg17
I00
sg18
I46
sg19
I00
sg20
S'beautifulcody'
p260
sg22
S'Iron Sword'
p261
sa(dp262
g15
Nsg16
I00
sg17
I00
sg18
I3
sg19
I00
sg20
g260
sg22
S'Vulnerary'
p263
sasg24
(lp264
I50
aI50
aI50
aI50
aI50
aI50
aI50
aI50
aI50
aI50
asg26
I18
sg27
(lp265
(I18
I0
tp266
a(I4
I0
tp267
a(I2
I0
tp268
a(I4
I0
tp269
a(I10
I0
tp270
a(I8
I0
tp271
a(I3
I0
tp272
a(I1
I0
tp273
a(I6
I0
tp274
a(I6
I0
tp275
asg39
S'0'
sg40
S'An energetic thief with a kleptomanic streak.'
p276
sg42
g43
((ltRp277
sg47
(lp278
(dp279
g50
Nsg51
Nsg52
Nsg53
(lp280
sg55
Nsg56
Nsg57
Nsg22
S'Locktouch'
p281
sasg59
(dp282
g61
I0
sg62
I0
sg63
I0
ssg64
I00
sg65
g66
sg67
g260
sg68
(lp283
I16
aI0
aI0
aI0
aI0
aI0
aI0
asg70
S'beautifulcody'
p284
sg72
I0
sg73
I1
sg74
I5
sg75
I0
sg76
S'Thief'
p285
sg78
I0
sg79
S'player'
p286
sg81
(I7
I17
tp287
sa(dp288
g7
S'None'
p289
sg9
(lp290
I90
aI45
aI15
aI35
aI30
aI30
aI55
aI20
aI0
aI0
asg11
I00
sg12
(lp291
(dp292
g15
Nsg16
I00
sg17
I00
sg18
I43
sg19
I00
sg20
S'Sir Carter'
p293
sg22
S'Iron Lance'
p294
sa(dp295
g15
Nsg16
I00
sg17
I00
sg18
I3
sg19
I00
sg20
g293
sg22
S'Vulnerary'
p296
sasg24
(lp297
I50
aI50
aI50
aI50
aI50
aI50
aI50
aI50
aI50
aI50
asg26
I25
sg27
(lp298
(I25
I0
tp299
a(I9
I0
tp300
a(I0
I0
tp301
a(I6
I0
tp302
a(I3
I0
tp303
a(I3
I0
tp304
a(I9
I0
tp305
a(I3
I0
tp306
a(I13
I0
tp307
a(I4
I0
tp308
asg39
S'0'
sg40
S'An avid scholar. Interested in esoteric philosophy.'
p309
sg42
g43
((ltRp310
sg47
(lp311
(dp312
g50
Nsg51
Nsg52
Nsg53
(lp313
I113
aI112
asg55
Nsg56
Nsg57
Nsg22
S'Provoke'
p314
sasg59
(dp315
g61
I22
sg62
I0
sg63
I0
ssg64
I00
sg65
g66
sg67
g293
sg68
(lp316
I0
aI18
aI0
aI0
aI0
aI0
aI0
asg70
S'Sir Carter'
p317
sg72
I1
sg73
I1
sg74
I0
sg75
I0
sg76
S'Knight'
p318
sg78
I20
sg79
S'player'
p319
sg81
(I20
I15
tp320
sa(dp321
g7
S'None'
p322
sg9
(lp323
I80
aI45
aI15
aI35
aI25
aI25
aI45
aI30
aI0
aI0
asg11
I01
sg12
(lp324
(dp325
g15
Nsg16
I00
sg17
I00
sg18
I44
sg19
I00
sg20
S'Not Tracer'
p326
sg22
S'Iron Lance'
p327
sa(dp328
g15
Nsg16
I00
sg17
I00
sg18
I20
sg19
I00
sg20
g326
sg22
S'Javelin'
p329
sasg24
(lp330
I50
aI50
aI50
aI50
aI50
aI50
aI50
aI50
aI50
aI50
asg26
I22
sg27
(lp331
(I22
I0
tp332
a(I4
I0
tp333
a(I0
I0
tp334
a(I1
I0
tp335
a(I1
I0
tp336
a(I1
I0
tp337
a(I3
I0
tp338
a(I1
I0
tp339
a(I6
I0
tp340
a(I5
I0
tp341
asg39
S'0'
sg40
S'A moody, sarcastic soldier.'
p342
sg42
g43
((ltRp343
sg47
(lp344
(dp345
g50
Nsg51
Nsg52
Nsg53
(lp346
sg55
Nsg56
Nsg57
Nsg22
S'Synergy'
p347
sasg59
(dp348
g61
I8
sg62
I0
sg63
I0
ssg64
I00
sg65
g66
sg67
g326
sg68
(lp349
I0
aI22
aI0
aI0
aI0
aI0
aI0
asg70
S'Not Tracer'
p350
sg72
I4
sg73
I1
sg74
I5
sg75
I0
sg76
S'Soldier'
p351
sg78
I10
sg79
S'player'
p352
sg81
Nsa(dp353
g7
S'None'
p354
sg9
(lp355
I65
aI15
aI35
aI45
aI55
aI55
aI40
aI65
aI0
aI0
asg11
I00
sg12
(lp356
(dp357
g15
Nsg16
I00
sg17
I00
sg18
I17
sg19
I00
sg20
S'T Rob'
p358
sg22
S'Shine'
p359
sa(dp360
g15
Nsg16
I00
sg17
I00
sg18
I15
sg19
I00
sg20
g358
sg22
S'Mend'
p361
sa(dp362
g15
Nsg16
I00
sg17
I00
sg18
I10
sg19
I00
sg20
g358
sg22
S'Fortune'
p363
sasg24
(lp364
I50
aI50
aI50
aI50
aI50
aI50
aI50
aI50
aI50
aI50
asg26
I18
sg27
(lp365
(I18
I0
tp366
a(I3
I0
tp367
a(I7
I0
tp368
a(I8
I0
tp369
a(I9
I0
tp370
a(I7
I0
tp371
a(I3
I0
tp372
a(I7
I0
tp373
a(I4
I0
tp374
a(I5
I0
tp375
asg39
S'0'
sg40
S"The resistance's leader. Ambitious and inquisitive."
p376
sg42
g43
((ltRp377
sg47
(lp378
(dp379
g50
Nsg51
Nsg52
Nsg53
(lp380
sg55
Nsg56
Nsg57
Nsg22
S'Inspiration'
p381
sasg59
(dp382
g61
I37
sg62
I2
sg63
I0
ssg64
I00
sg65
g66
sg67
g358
sg68
(lp383
I0
aI0
aI0
aI0
aI34
aI0
aI0
asg70
S'T Rob'
p384
sg72
I5
sg73
I1
sg74
I0
sg75
I0
sg76
S'Tactician'
p385
sg78
I70
sg79
S'player'
p386
sg81
(I15
I14
tp387
sa(dp388
g7
S'None'
p389
sg9
(lp390
I90
aI45
aI5
aI40
aI30
aI30
aI35
aI25
aI0
aI0
asg11
I00
sg12
(lp391
(dp392
g15
Nsg16
I00
sg17
I00
sg18
I17
sg19
I00
sg20
S'Dornstar'
p393
sg22
S'Rusted Sword'
p394
sa(dp395
g15
Nsg16
I00
sg17
I00
sg18
I3
sg19
I00
sg20
g393
sg22
S'Vulnerary'
p396
sasg24
(lp397
I50
aI50
aI50
aI50
aI50
aI50
aI50
aI50
aI50
aI50
asg26
I22
sg27
(lp398
(I20
I5
tp399
a(I9
I0
tp400
a(I0
I0
tp401
a(I11
I0
tp402
a(I9
I0
tp403
a(I4
I0
tp404
a(I5
I0
tp405
a(I2
I0
tp406
a(I9
I0
tp407
a(I5
I0
tp408
asg39
S'0'
sg40
S'A troubled wandererer with a mysterious past.'
p409
sg42
g43
((ltRp410
sg47
(lp411
(dp412
g50
Nsg51
Nsg52
Nsg53
(lp413
sg55
Nsg56
Nsg57
Nsg22
S'Initiative'
p414
sa(dp415
g50
Nsg51
Nsg52
Nsg53
(lp416
sg55
Nsg56
Nsg57
Nsg22
S'fMaximum HP +5'
p417
sasg59
(dp418
g61
I11
sg62
I1
sg63
I0
ssg64
I00
sg65
g66
sg67
g393
sg68
(lp419
I44
aI0
aI0
aI0
aI0
aI0
aI0
asg70
S'Dornstar'
p420
sg72
I4
sg73
I1
sg74
I0
sg75
I0
sg76
S'Mercenary'
p421
sg78
I41
sg79
S'player'
p422
sg81
(I19
I14
tp423
sa(dp424
g7
S'None'
p425
sg9
(lp426
I70
aI5
aI50
aI40
aI35
aI20
aI10
aI45
aI0
aI0
asg11
I00
sg12
(lp427
(dp428
g15
Nsg16
I00
sg17
I00
sg18
I27
sg19
I00
sg20
S'Leech'
p429
sg22
S'Flux'
p430
sa(dp431
g15
Nsg16
I00
sg17
I00
sg18
I10
sg19
I00
sg20
g429
sg22
S'Scathe'
p432
sa(dp433
g15
Nsg16
I00
sg17
I00
sg18
I3
sg19
I00
sg20
g429
sg22
S'Spiritbane'
p434
sasg24
(lp435
I50
aI50
aI50
aI50
aI50
aI50
aI50
aI50
aI50
aI50
asg26
I22
sg27
(lp436
(I22
I0
tp437
a(I1
I0
tp438
a(I10
I0
tp439
a(I8
I0
tp440
a(I5
I2
tp441
a(I0
I0
tp442
a(I2
I0
tp443
a(I7
I0
tp444
a(I7
I0
tp445
a(I4
I0
tp446
asg39
S'0'
sg40
S'A scheming diplomat from the Confederacy.'
p447
sg42
g43
((ltRp448
sg47
(lp449
(dp450
g50
Nsg51
Nsg52
Nsg53
(lp451
sg55
Nsg56
Nsg57
Nsg22
S'Hex'
p452
sa(dp453
g50
Nsg51
Nsg52
Nsg53
(lp454
sg55
Nsg56
Nsg57
Nsg22
S'fSpeed +2'
p455
sasg59
(dp456
g61
I26
sg62
I2
sg63
I0
ssg64
I00
sg65
g66
sg67
g429
sg68
(lp457
I0
aI0
aI0
aI0
aI0
aI0
aI38
asg70
S'Leech'
p458
sg72
I5
sg73
I1
sg74
I5
sg75
I0
sg76
S'Shaman'
p459
sg78
I60
sg79
S'player'
p460
sg81
(I17
I15
tp461
sa(dp462
g7
S'None'
p463
sg9
(lp464
I100
aI50
aI0
aI50
aI0
aI0
aI0
aI0
aI0
aI0
asg11
I00
sg12
(lp465
(dp466
g15
Nsg16
I00
sg17
I00
sg18
I20
sg19
I00
sg20
S'Sidney'
p467
sg22
S'Hand Axe'
p468
sa(dp469
g15
Nsg16
I00
sg17
I00
sg18
I45
sg19
I00
sg20
g467
sg22
S'Iron Axe'
p470
sasg24
(lp471
I50
aI50
aI50
aI50
aI50
aI50
aI50
aI50
aI50
aI50
asg26
I30
sg27
(lp472
(I30
I0
tp473
a(I12
I0
tp474
a(I0
I0
tp475
a(I5
I0
tp476
a(I5
I0
tp477
a(I0
I0
tp478
a(I5
I0
tp479
a(I2
I0
tp480
a(I11
I0
tp481
a(I5
I0
tp482
asg39
S'0'
sg40
S'A cruel Imperial lieutenant.'
p483
sg42
g43
((ltRp484
sg47
(lp485
(dp486
g50
Nsg51
Nsg52
Nsg53
(lp487
sg55
Nsg56
I0
sg57
Nsg22
g144
sasg59
(dp488
g61
I0
sg62
I0
sg63
I0
ssg64
I00
sg65
g66
sg67
g467
sg68
(lp489
I0
aI0
aI1
aI0
aI0
aI0
aI0
asg70
S'Sidney'
p490
sg72
I4
sg73
I4
sg74
I0
sg75
I0
sg76
S'Fighter'
p491
sg78
I0
sg79
S'enemy'
p492
sg81
(I12
I2
tp493
sa(dp494
g7
S'Attack'
p495
sg9
(lp496
I80
aI40
aI15
aI40
aI32
aI30
aI18
aI20
aI0
aI0
asg11
I00
sg12
(lp497
(dp498
g15
Nsg16
I00
sg17
I00
sg18
I45
sg19
I00
sg20
I102
sg22
S'Iron Sword'
p499
sasg24
(lp500
I50
aI50
aI50
aI50
aI50
aI50
aI50
aI50
aI50
aI50
asg26
I18
sg27
(lp501
(I18
I0
tp502
a(I4
I0
tp503
a(I1
I0
tp504
a(I8
I0
tp505
a(I8
I0
tp506
a(I0
I0
tp507
a(I4
I0
tp508
a(I0
I0
tp509
a(I9
I0
tp510
a(I5
I0
tp511
asg39
S'0'
sg40
S''
sg42
g43
((ltRp512
sg47
(lp513
(dp514
g50
Nsg51
Nsg52
Nsg53
(lp515
sg55
Nsg56
Nsg57
Nsg22
g414
sasg59
(dp516
g61
I0
sg62
I0
sg63
I0
ssg64
I00
sg65
S'Resistance'
p517
sg67
I102
sg68
(lp518
I1
aI0
aI0
aI0
aI0
aI0
aI0
asg70
S'Resistance'
p519
sg72
I4
sg73
I1
sg74
I0
sg75
I0
sg76
S'Mercenary'
p520
sg78
I0
sg79
S'enemy'
p521
sg81
(I6
I17
tp522
sa(dp523
g7
S'Attack'
p524
sg9
(lp525
I80
aI40
aI15
aI40
aI32
aI30
aI18
aI20
aI0
aI0
asg11
I00
sg12
(lp526
(dp527
g15
Nsg16
I00
sg17
I00
sg18
I46
sg19
I00
sg20
I103
sg22
S'Iron Sword'
p528
sasg24
(lp529
I50
aI50
aI50
aI50
aI50
aI50
aI50
aI50
aI50
aI50
asg26
I18
sg27
(lp530
(I18
I0
tp531
a(I4
I0
tp532
a(I1
I0
tp533
a(I8
I0
tp534
a(I8
I0
tp535
a(I0
I0
tp536
a(I4
I0
tp537
a(I0
I0
tp538
a(I9
I0
tp539
a(I5
I0
tp540
asg39
S'0'
sg40
S''
sg42
g512
sg47
(lp541
(dp542
g50
Nsg51
Nsg52
Nsg53
(lp543
sg55
Nsg56
Nsg57
Nsg22
g414
sasg59
(dp544
g61
I0
sg62
I0
sg63
I0
ssg64
I00
sg65
g517
sg67
I103
sg68
(lp545
I1
aI0
aI0
aI0
aI0
aI0
aI0
asg70
g519
sg72
I4
sg73
I2
sg74
I0
sg75
I0
sg76
S'Mercenary'
p546
sg78
I0
sg79
S'enemy'
p547
sg81
Nsa(dp548
g7
S'SoftGuard'
p549
sg9
(lp550
I80
aI40
aI15
aI30
aI15
aI25
aI28
aI20
aI0
aI0
asg11
I00
sg12
(lp551
(dp552
g15
Nsg16
I00
sg17
I00
sg18
I45
sg19
I00
sg20
I108
sg22
S'Iron Lance'
p553
sa(dp554
g15
Nsg16
I00
sg17
I01
sg18
I1
sg19
I00
sg20
I108
sg22
S'Skeleton Key'
p555
sasg24
(lp556
I50
aI50
aI50
aI50
aI50
aI50
aI50
aI50
aI50
aI50
asg26
I18
sg27
(lp557
(I18
I0
tp558
a(I6
I0
tp559
a(I1
I0
tp560
a(I2
I0
tp561
a(I0
I0
tp562
a(I0
I0
tp563
a(I10
I0
tp564
a(I1
I0
tp565
a(I13
I0
tp566
a(I4
I0
tp567
asg39
S'0'
sg40
S''
sg42
g43
((ltRp568
sg47
(lp569
(dp570
g50
Nsg51
Nsg52
Nsg53
(lp571
sg55
Nsg56
Nsg57
Nsg22
g314
sasg59
(dp572
g61
I0
sg62
I0
sg63
I0
ssg64
I00
sg65
g517
sg67
I108
sg68
(lp573
I0
aI1
aI0
aI0
aI0
aI0
aI0
asg70
g519
sg72
I1
sg73
I3
sg74
I0
sg75
I0
sg76
S'Knight'
p574
sg78
I0
sg79
S'enemy'
p575
sg81
(I12
I6
tp576
sa(dp577
g7
S'Attack'
p578
sg9
(lp579
I80
aI40
aI15
aI40
aI32
aI30
aI18
aI20
aI0
aI0
asg11
I00
sg12
(lp580
(dp581
g15
Nsg16
I00
sg17
I00
sg18
I45
sg19
I00
sg20
I109
sg22
S'Iron Lance'
p582
sasg24
(lp583
I50
aI50
aI50
aI50
aI50
aI50
aI50
aI50
aI50
aI50
asg26
I19
sg27
(lp584
(I19
I0
tp585
a(I4
I0
tp586
a(I1
I0
tp587
a(I9
I0
tp588
a(I8
I0
tp589
a(I0
I0
tp590
a(I4
I0
tp591
a(I0
I0
tp592
a(I9
I0
tp593
a(I5
I0
tp594
asg39
S'0'
sg40
S''
sg42
g43
((ltRp595
sg47
(lp596
(dp597
g50
Nsg51
Nsg52
Nsg53
(lp598
sg55
Nsg56
Nsg57
Nsg22
S'Fleet_of_Foot'
p599
sasg59
(dp600
g61
I0
sg62
I0
sg63
I0
ssg64
I00
sg65
g517
sg67
I109
sg68
(lp601
I0
aI1
aI0
aI0
aI0
aI0
aI0
asg70
g519
sg72
I0
sg73
I2
sg74
I0
sg75
I0
sg76
S'Skirmisher'
p602
sg78
I0
sg79
S'enemy'
p603
sg81
(I12
I7
tp604
sa(dp605
g7
S'Attack'
p606
sg9
(lp607
I85
aI55
aI15
aI35
aI30
aI15
aI15
aI15
aI0
aI0
asg11
I00
sg12
(lp608
(dp609
g15
Nsg16
I00
sg17
I00
sg18
I45
sg19
I00
sg20
I110
sg22
S'Iron Axe'
p610
sasg24
(lp611
I50
aI50
aI50
aI50
aI50
aI50
aI50
aI50
aI50
aI50
asg26
I21
sg27
(lp612
(I21
I0
tp613
a(I6
I0
tp614
a(I1
I0
tp615
a(I2
I0
tp616
a(I4
I0
tp617
a(I0
I0
tp618
a(I2
I0
tp619
a(I0
I0
tp620
a(I11
I0
tp621
a(I5
I0
tp622
asg39
S'0'
sg40
S''
sg42
g43
((ltRp623
sg47
(lp624
(dp625
g50
Nsg51
Nsg52
Nsg53
(lp626
sg55
Nsg56
I0
sg57
Nsg22
g144
sasg59
(dp627
g61
I0
sg62
I0
sg63
I0
ssg64
I00
sg65
g517
sg67
I110
sg68
(lp628
I0
aI0
aI1
aI0
aI0
aI0
aI0
asg70
g519
sg72
I4
sg73
I2
sg74
I0
sg75
I0
sg76
S'Fighter'
p629
sg78
I0
sg79
S'enemy'
p630
sg81
(I20
I7
tp631
sa(dp632
g7
S'Attack'
p633
sg9
(lp634
I80
aI40
aI15
aI40
aI32
aI30
aI18
aI20
aI0
aI0
asg11
I00
sg12
(lp635
(dp636
g15
Nsg16
I00
sg17
I00
sg18
I45
sg19
I00
sg20
I111
sg22
S'Iron Sword'
p637
sasg24
(lp638
I50
aI50
aI50
aI50
aI50
aI50
aI50
aI50
aI50
aI50
asg26
I18
sg27
(lp639
(I18
I0
tp640
a(I4
I0
tp641
a(I1
I0
tp642
a(I8
I0
tp643
a(I8
I0
tp644
a(I0
I0
tp645
a(I4
I0
tp646
a(I0
I0
tp647
a(I9
I0
tp648
a(I5
I0
tp649
asg39
S'0'
sg40
S''
sg42
g512
sg47
(lp650
(dp651
g50
Nsg51
Nsg52
Nsg53
(lp652
sg55
Nsg56
Nsg57
Nsg22
g414
sasg59
(dp653
g61
I0
sg62
I0
sg63
I0
ssg64
I00
sg65
g517
sg67
I111
sg68
(lp654
I1
aI0
aI0
aI0
aI0
aI0
aI0
asg70
g519
sg72
I4
sg73
I1
sg74
I0
sg75
I0
sg76
S'Mercenary'
p655
sg78
I0
sg79
S'enemy'
p656
sg81
(I7
I14
tp657
sa(dp658
g7
S'Attack'
p659
sg9
(lp660
I80
aI40
aI15
aI40
aI32
aI30
aI18
aI20
aI0
aI0
asg11
I00
sg12
(lp661
(dp662
g15
Nsg16
I00
sg17
I00
sg18
I46
sg19
I00
sg20
I114
sg22
S'Iron Sword'
p663
sasg24
(lp664
I50
aI50
aI50
aI50
aI50
aI50
aI50
aI50
aI50
aI50
asg26
I19
sg27
(lp665
(I19
I0
tp666
a(I4
I0
tp667
a(I1
I0
tp668
a(I8
I0
tp669
a(I8
I0
tp670
a(I0
I0
tp671
a(I5
I0
tp672
a(I0
I0
tp673
a(I9
I0
tp674
a(I5
I0
tp675
asg39
S'0'
sg40
S''
sg42
g512
sg47
(lp676
(dp677
g50
Nsg51
Nsg52
Nsg53
(lp678
sg55
Nsg56
Nsg57
Nsg22
g414
sasg59
(dp679
g61
I0
sg62
I0
sg63
I0
ssg64
I00
sg65
g517
sg67
I114
sg68
(lp680
I1
aI0
aI0
aI0
aI0
aI0
aI0
asg70
g519
sg72
I4
sg73
I2
sg74
I0
sg75
I0
sg76
S'Mercenary'
p681
sg78
I0
sg79
S'enemy'
p682
sg81
Nsa(dp683
g7
S'Attack'
p684
sg9
(lp685
I80
aI40
aI15
aI40
aI32
aI30
aI18
aI20
aI0
aI0
asg11
I00
sg12
(lp686
(dp687
g15
Nsg16
I00
sg17
I00
sg18
I45
sg19
I00
sg20
I115
sg22
S'Iron Sword'
p688
sasg24
(lp689
I50
aI50
aI50
aI50
aI50
aI50
aI50
aI50
aI50
aI50
asg26
I19
sg27
(lp690
(I19
I0
tp691
a(I4
I0
tp692
a(I1
I0
tp693
a(I8
I0
tp694
a(I9
I0
tp695
a(I1
I0
tp696
a(I4
I0
tp697
a(I0
I0
tp698
a(I9
I0
tp699
a(I5
I0
tp700
asg39
S'0'
sg40
S''
sg42
g512
sg47
(lp701
(dp702
g50
Nsg51
Nsg52
Nsg53
(lp703
sg55
Nsg56
Nsg57
Nsg22
g414
sasg59
(dp704
g61
I0
sg62
I0
sg63
I0
ssg64
I00
sg65
g517
sg67
I115
sg68
(lp705
I1
aI0
aI0
aI0
aI0
aI0
aI0
asg70
g519
sg72
I4
sg73
I2
sg74
I0
sg75
I0
sg76
S'Mercenary'
p706
sg78
I0
sg79
S'enemy'
p707
sg81
(I9
I12
tp708
sa(dp709
g7
S'Attack'
p710
sg9
(lp711
I85
aI55
aI15
aI35
aI30
aI15
aI15
aI15
aI0
aI0
asg11
I00
sg12
(lp712
(dp713
g15
Nsg16
I00
sg17
I00
sg18
I45
sg19
I00
sg20
I118
sg22
S'Iron Axe'
p714
sasg24
(lp715
I50
aI50
aI50
aI50
aI50
aI50
aI50
aI50
aI50
aI50
asg26
I21
sg27
(lp716
(I21
I0
tp717
a(I6
I0
tp718
a(I0
I0
tp719
a(I3
I0
tp720
a(I4
I0
tp721
a(I0
I0
tp722
a(I2
I0
tp723
a(I0
I0
tp724
a(I11
I0
tp725
a(I5
I0
tp726
asg39
S'0'
sg40
S''
sg42
g623
sg47
(lp727
(dp728
g50
Nsg51
Nsg52
Nsg53
(lp729
sg55
Nsg56
I0
sg57
Nsg22
g144
sasg59
(dp730
g61
I0
sg62
I0
sg63
I0
ssg64
I00
sg65
g517
sg67
I118
sg68
(lp731
I0
aI0
aI1
aI0
aI0
aI0
aI0
asg70
g519
sg72
I4
sg73
I2
sg74
I0
sg75
I0
sg76
S'Fighter'
p732
sg78
I0
sg79
S'enemy'
p733
sg81
(I4
I7
tp734
sa(dp735
g7
S'Attack'
p736
sg9
(lp737
I70
aI35
aI10
aI40
aI40
aI30
aI15
aI20
aI0
aI0
asg11
I00
sg12
(lp738
(dp739
g15
Nsg16
I00
sg17
I00
sg18
I46
sg19
I00
sg20
I119
sg22
S'Iron Sword'
p740
sasg24
(lp741
I50
aI50
aI50
aI50
aI50
aI50
aI50
aI50
aI50
aI50
asg26
I17
sg27
(lp742
(I17
I0
tp743
a(I4
I0
tp744
a(I1
I0
tp745
a(I9
I0
tp746
a(I9
I0
tp747
a(I0
I0
tp748
a(I2
I0
tp749
a(I0
I0
tp750
a(I8
I0
tp751
a(I5
I0
tp752
asg39
S'0'
sg40
S''
sg42
g43
((ltRp753
sg47
(lp754
(dp755
g50
Nsg51
Nsg52
Nsg53
(lp756
sg55
Nsg56
Nsg57
Nsg22
g58
sasg59
(dp757
g61
I0
sg62
I0
sg63
I0
ssg64
I00
sg65
g517
sg67
I119
sg68
(lp758
I1
aI0
aI0
aI0
aI0
aI0
aI0
asg70
g519
sg72
I0
sg73
I2
sg74
I0
sg75
I0
sg76
S'Myrmidon'
p759
sg78
I0
sg79
S'enemy'
p760
sg81
(I2
I9
tp761
sa(dp762
g7
S'Attack'
p763
sg9
(lp764
I80
aI50
aI15
aI30
aI20
aI25
aI12
aI15
aI0
aI0
asg11
I00
sg12
(lp765
(dp766
g15
Nsg16
I00
sg17
I00
sg18
I45
sg19
I00
sg20
I120
sg22
S'Iron Lance'
p767
sasg24
(lp768
I50
aI50
aI50
aI50
aI50
aI50
aI50
aI50
aI50
aI50
asg26
I21
sg27
(lp769
(I21
I0
tp770
a(I4
I0
tp771
a(I0
I0
tp772
a(I1
I0
tp773
a(I1
I0
tp774
a(I0
I0
tp775
a(I0
I0
tp776
a(I0
I0
tp777
a(I6
I0
tp778
a(I5
I0
tp779
asg39
S'0'
sg40
S''
sg42
g43
((ltRp780
sg47
(lp781
(dp782
g50
Nsg51
Nsg52
Nsg53
(lp783
sg55
Nsg56
Nsg57
Nsg22
g347
sasg59
(dp784
g61
I0
sg62
I0
sg63
I0
ssg64
I00
sg65
g517
sg67
I120
sg68
(lp785
I0
aI1
aI0
aI0
aI0
aI0
aI0
asg70
g519
sg72
I4
sg73
I2
sg74
I0
sg75
I0
sg76
S'Soldier'
p786
sg78
I0
sg79
S'enemy'
p787
sg81
(I6
I11
tp788
sa(dp789
g7
S'Attack'
p790
sg9
(lp791
I80
aI50
aI15
aI30
aI20
aI25
aI12
aI15
aI0
aI0
asg11
I00
sg12
(lp792
(dp793
g15
Nsg16
I00
sg17
I00
sg18
I45
sg19
I00
sg20
I121
sg22
S'Iron Lance'
p794
sasg24
(lp795
I50
aI50
aI50
aI50
aI50
aI50
aI50
aI50
aI50
aI50
asg26
I20
sg27
(lp796
(I20
I0
tp797
a(I3
I0
tp798
a(I0
I0
tp799
a(I0
I0
tp800
a(I1
I0
tp801
a(I0
I0
tp802
a(I0
I0
tp803
a(I0
I0
tp804
a(I6
I0
tp805
a(I5
I0
tp806
asg39
S'0'
sg40
S''
sg42
g780
sg47
(lp807
(dp808
g50
Nsg51
Nsg52
Nsg53
(lp809
sg55
Nsg56
Nsg57
Nsg22
g347
sasg59
(dp810
g61
I0
sg62
I0
sg63
I0
ssg64
I00
sg65
g517
sg67
I121
sg68
(lp811
I0
aI1
aI0
aI0
aI0
aI0
aI0
asg70
g519
sg72
I4
sg73
I2
sg74
I0
sg75
I0
sg76
S'Soldier'
p812
sg78
I0
sg79
S'enemy'
p813
sg81
(I18
I11
tp814
sa(dp815
g7
S'Attack'
p816
sg9
(lp817
I70
aI35
aI10
aI40
aI40
aI30
aI15
aI20
aI0
aI0
asg11
I00
sg12
(lp818
(dp819
g15
Nsg16
I00
sg17
I00
sg18
I46
sg19
I00
sg20
I122
sg22
S'Iron Sword'
p820
sasg24
(lp821
I50
aI50
aI50
aI50
aI50
aI50
aI50
aI50
aI50
aI50
asg26
I16
sg27
(lp822
(I16
I0
tp823
a(I4
I0
tp824
a(I1
I0
tp825
a(I9
I0
tp826
a(I9
I0
tp827
a(I0
I0
tp828
a(I2
I0
tp829
a(I0
I0
tp830
a(I8
I0
tp831
a(I5
I0
tp832
asg39
S'0'
sg40
S''
sg42
g753
sg47
(lp833
(dp834
g50
Nsg51
Nsg52
Nsg53
(lp835
sg55
Nsg56
Nsg57
Nsg22
g58
sasg59
(dp836
g61
I0
sg62
I0
sg63
I0
ssg64
I00
sg65
g517
sg67
I122
sg68
(lp837
I1
aI0
aI0
aI0
aI0
aI0
aI0
asg70
g519
sg72
I0
sg73
I1
sg74
I0
sg75
I0
sg76
S'Myrmidon'
p838
sg78
I0
sg79
S'enemy'
p839
sg81
(I22
I14
tp840
sasS'convoy'
p841
(lp842
sS'allreinforcements'
p843
(dp844
sS'base_conversations'
p845
ccollections
OrderedDict
p846
((ltRp847
sS'phase_music'
p848
(S'Fire Emblem IfFates + Awakening BGM - Conquest (CalmAblaze Mix Extended)'
p849
S'Battle (Enemy Phase) - Fire Emblem Heroes Music Extended'
p850
Ntp851
sS'playtime'
p852
I574803
sS'message'
p853
(lp854
sS'unlocked_lore'
p855
(lp856
sS'statistics'
p857
(lp858
sS'market_items'
p859
g43
((ltRp860
sS'support'
p861
NsS'objective'
p862
(S'Defeat Boss'
p863
S'Defeat Boss'
p864
S'Lord dies,OR,Party size falls below 5. Currently {gameStateObj.get_total_party_members()}'
p865
tp866
sS'turncount'
p867
I2
sS'map'
p868
(dp869
S'HP'
p870
(lp871
sS'command_list'
p872
(lp873
ssS'state_list'
p874
((lp875
g7
aS'status'
p876
aS'phase_change'
p877
a(lp878
S'pop'
p879
atp880
sS'prefabs'
p881
(dp882
sS'level_constants'
p883
ccollections
Counter
p884
((dtRp885
sS'phase_info'
p886
(I1
I0
tp887
sS'factions'
p888
(dp889
S'Empire'
p890
(S'Empire'
S'Empire'
S''
tp891
sS'Resistance'
p892
(g519
g517
S''
tp893
ssS'triggers'
p894
(dp895
sS'mode'
p896
(dp897
S'autolevel_enemies'
p898
S'0'
sS'death'
p899
I1
sg70
S'Hard'
p900
sS'color'
p901
S'Green'
p902
sS'player_bases'
p903
(lp904
I0
aI0
aI0
aI0
aI0
aI0
aI0
aI0
aI0
aI0
asS'growths'
p905
I0
sS'rng'
p906
S'true_hit'
p907
sS'autolevel_players'
p908
S'0'
sS'enemy_growths'
p909
(lp910
I0
aI0
aI0
aI0
aI0
aI0
aI0
aI0
aI0
aI0
asS'truelevel_enemies'
p911
S'0'
sS'player_growths'
p912
(lp913
I0
aI0
aI0
aI0
aI0
aI0
aI0
aI0
aI0
aI0
asS'enemy_bases'
p914
(lp915
I0
aI0
aI0
aI0
aI0
aI0
aI0
aI0
aI0
aI0
asS'id'
p916
S'1'
sS'tutorial'
p917
S'1'
ssS'game_constants'
p918
g884
((dp919
S'money'
p920
I0
sg73
S'DEBUG'
p921
stRp922
s.