(dp1
S'talk_options'
p2
(lp3
sS'allunits'
p4
(lp5
(dp6
S'ai'
p7
S'None'
p8
sS'growths'
p9
(lp10
I80
aI35
aI0
aI55
aI55
aI30
aI20
aI20
aI0
aI0
asS'dead'
p11
I00
sS'items'
p12
(lp13
(dp14
S'c_uses'
p15
NsS'locked'
p16
I00
sS'droppable'
p17
I00
sS'uses'
p18
I40
sS'event_combat'
p19
I00
sS'owner'
p20
S'Jaeger'
p21
sS'id'
p22
S'Iron Sword'
p23
sasS'growth_points'
p24
(lp25
I50
aI50
aI50
aI50
aI50
aI50
aI50
aI50
aI50
aI50
asS'currenthp'
p26
I16
sS'stats'
p27
(lp28
(I16
I0
tp29
a(I8
I0
tp30
a(I2
I0
tp31
a(I13
I0
tp32
a(I14
I0
tp33
a(I7
I0
tp34
a(I5
I0
tp35
a(I2
I0
tp36
a(I8
I0
tp37
a(I5
I0
tp38
asS'event_id'
p39
S'0'
sS'desc'
p40
S'A strong-hearted renegade who often acts before he thinks.'
p41
sS'tags'
p42
c__builtin__
set
p43
((lp44
S'Lord'
p45
atRp46
sS'status_effects'
p47
(lp48
(dp49
S'count'
p50
NsS'time_left'
p51
NsS'upkeep_sc_count'
p52
NsS'children'
p53
(lp54
sS'parent_id'
p55
NsS'charge'
p56
NsS'rhythm_sc_count'
p57
Nsg22
S'Riposte'
p58
sasS'records'
p59
(dp60
S'damage'
p61
I32
sS'kills'
p62
I2
sS'healing'
p63
I0
ssS'finished'
p64
I00
sS'faction_icon'
p65
S'Neutral'
p66
sS'u_id'
p67
g21
sS'wexp'
p68
(lp69
I12
aI0
aI0
aI0
aI0
aI0
aI0
asS'name'
p70
S'Jaeger'
p71
sS'movement_group'
p72
I0
sS'level'
p73
I1
sS'gender'
p74
I2
sS'TRV'
p75
I0
sS'klass'
p76
S'Myrmidon'
p77
sS'exp'
p78
I71
sS'team'
p79
S'player'
p80
sS'position'
p81
(I9
I13
tp82
sa(dp83
g7
S'None'
p84
sg9
(lp85
I50
aI15
aI60
aI25
aI40
aI60
aI15
aI55
aI0
aI0
asg11
I01
sg12
(lp86
(dp87
g15
Nsg16
I00
sg17
I00
sg18
I28
sg19
I00
sg20
S'NANC'
p88
sg22
S'Heal'
p89
sa(dp90
g15
Nsg16
I00
sg17
I00
sg18
I27
sg19
I00
sg20
g88
sg22
S'Glimmer'
p91
sasg24
(lp92
I50
aI50
aI50
aI50
aI50
aI50
aI50
aI50
aI50
aI50
asg26
I18
sg27
(lp93
(I18
I0
tp94
a(I0
I0
tp95
a(I2
I0
tp96
a(I4
I0
tp97
a(I8
I0
tp98
a(I6
I0
tp99
a(I2
I0
tp100
a(I6
I0
tp101
a(I4
I0
tp102
a(I5
I0
tp103
asg39
S'0'
sg40
S'A shy but kind-hearted young woman. Has an affinity with the spiritual.'
p104
sg42
g43
((ltRp105
sg47
(lp106
(dp107
g50
Nsg51
Nsg52
Nsg53
(lp108
sg55
Nsg56
Nsg57
Nsg22
S'Healtouch'
p109
sasg59
(dp110
g61
I8
sg62
I0
sg63
I19
ssg64
I00
sg65
g66
sg67
g88
sg68
(lp111
I0
aI0
aI0
aI0
aI6
aI0
aI0
asg70
S'NANC'
p112
sg72
I5
sg73
I1
sg74
I7
sg75
I0
sg76
S'Cleric'
p113
sg78
I34
sg79
S'player'
p114
sg81
Nsa(dp115
g7
S'None'
p116
sg9
(lp117
I80
aI65
aI5
aI40
aI20
aI40
aI25
aI15
aI0
aI0
asg11
I00
sg12
(lp118
(dp119
g15
Nsg16
I00
sg17
I00
sg18
I38
sg19
I00
sg20
S'Kenboslice'
p120
sg22
S'Iron Axe'
p121
sa(dp122
g15
Nsg16
I00
sg17
I00
sg18
I3
sg19
I00
sg20
g120
sg22
S'Vulnerary'
p123
sasg24
(lp124
I50
aI50
aI50
aI50
aI50
aI50
aI50
aI50
aI50
aI50
asg26
I15
sg27
(lp125
(I21
I0
tp126
a(I8
I0
tp127
a(I0
I0
tp128
a(I7
I0
tp129
a(I7
I0
tp130
a(I3
I0
tp131
a(I5
I0
tp132
a(I1
I0
tp133
a(I11
I0
tp134
a(I5
I0
tp135
asg39
S'0'
sg40
S'A jovial former sailor. Always ready for a new adventure.'
p136
sg42
g43
((lp137
S'ActiveSkillCharged'
p138
atRp139
sg47
(lp140
(dp141
g50
Nsg51
Nsg52
Nsg53
(lp142
sg55
Nsg56
I15
sg57
Nsg22
S'Cleave'
p143
sa(dp144
g50
Nsg51
Nsg52
Nsg53
(lp145
sg55
I108
sg56
Nsg57
Nsg22
S'Provoke_Child'
p146
sasg59
(dp147
g61
I53
sg62
I2
sg63
I0
ssg64
I00
sg65
g66
sg67
g120
sg68
(lp148
I0
aI0
aI22
aI0
aI0
aI0
aI0
asg70
S'Kenboslice'
p149
sg72
I4
sg73
I1
sg74
I0
sg75
I0
sg76
S'Fighter'
p150
sg78
I91
sg79
S'player'
p151
sg81
(I12
I8
tp152
sa(dp153
g7
S'None'
p154
sg9
(lp155
I55
aI45
aI25
aI50
aI60
aI50
aI15
aI35
aI0
aI0
asg11
I00
sg12
(lp156
(dp157
g15
Nsg16
I00
sg17
I00
sg18
I42
sg19
I00
sg20
S'Olive'
p158
sg22
S'Willow Bow'
p159
sa(dp160
g15
Nsg16
I00
sg17
I00
sg18
I3
sg19
I00
sg20
g158
sg22
S'Vulnerary'
p161
sasg24
(lp162
I50
aI50
aI50
aI50
aI50
aI50
aI50
aI50
aI50
aI50
asg26
I5
sg27
(lp163
(I17
I0
tp164
a(I4
I0
tp165
a(I2
I0
tp166
a(I5
I0
tp167
a(I6
I0
tp168
a(I4
I0
tp169
a(I3
I0
tp170
a(I2
I0
tp171
a(I7
I0
tp172
a(I5
I0
tp173
asg39
S'0'
sg40
S'A quiet archer most at home in the wilderness.'
p174
sg42
g43
((ltRp175
sg47
(lp176
(dp177
g50
Nsg51
Nsg52
Nsg53
(lp178
sg55
Nsg56
Nsg57
Nsg22
S'Prescience'
p179
sasg59
(dp180
g61
I14
sg62
I0
sg63
I0
ssg64
I00
sg65
g66
sg67
g158
sg68
(lp181
I0
aI0
aI0
aI19
aI0
aI0
aI0
asg70
S'Olive'
p182
sg72
I0
sg73
I1
sg74
I6
sg75
I0
sg76
S'Archer'
p183
sg78
I32
sg79
S'player'
p184
sg81
(I16
I10
tp185
sa(dp186
g7
S'None'
p187
sg9
(lp188
I55
aI45
aI30
aI50
aI60
aI50
aI15
aI35
aI0
aI0
asg11
I00
sg12
(lp189
(dp190
g15
Nsg16
I00
sg17
I00
sg18
I26
sg19
I00
sg20
S'Mama Coco'
p191
sg22
S'Fire'
p192
sa(dp193
g15
Nsg16
I00
sg17
I00
sg18
I3
sg19
I00
sg20
g191
sg22
S'Vulnerary'
p194
sasg24
(lp195
I50
aI50
aI50
aI50
aI50
aI50
aI50
aI50
aI50
aI50
asg26
I11
sg27
(lp196
(I17
I0
tp197
a(I1
I0
tp198
a(I6
I0
tp199
a(I6
I0
tp200
a(I7
I0
tp201
a(I8
I0
tp202
a(I3
I0
tp203
a(I5
I2
tp204
a(I5
I0
tp205
a(I5
I0
tp206
asg39
S'0'
sg40
S'A forthright but elegant and refined sorceress.'
p207
sg42
g43
((ltRp208
sg47
(lp209
(dp210
g50
Nsg51
Nsg52
Nsg53
(lp211
sg55
Nsg56
Nsg57
Nsg22
S'Resistance +2'
p212
sa(dp213
g50
Nsg51
Nsg52
Nsg53
(lp214
sg55
Nsg56
Nsg57
Nsg22
S'Focus'
p215
sasg59
(dp216
g61
I23
sg62
I2
sg63
I0
ssg64
I00
sg65
g66
sg67
g191
sg68
(lp217
I0
aI0
aI0
aI0
aI0
aI10
aI0
asg70
S'Mama Coco'
p218
sg72
I5
sg73
I1
sg74
I5
sg75
I0
sg76
S'Mage'
p219
sg78
I71
sg79
S'player'
p220
sg81
(I19
I10
tp221
sa(dp222
g7
S'None'
p223
sg9
(lp224
I80
aI40
aI5
aI40
aI50
aI40
aI25
aI20
aI0
aI0
asg11
I00
sg12
(lp225
(dp226
g15
Nsg16
I00
sg17
I00
sg18
I41
sg19
I00
sg20
S'Sergio'
p227
sg22
S'Iron Lance'
p228
sa(dp229
g15
Nsg16
I00
sg17
I00
sg18
I46
sg19
I00
sg20
g227
sg22
S'Iron Sword'
p230
sasg24
(lp231
I50
aI50
aI50
aI50
aI50
aI50
aI50
aI50
aI50
aI50
asg26
I20
sg27
(lp232
(I20
I0
tp233
a(I7
I0
tp234
a(I1
I0
tp235
a(I5
I0
tp236
a(I7
I0
tp237
a(I2
I0
tp238
a(I6
I0
tp239
a(I1
I0
tp240
a(I9
I0
tp241
a(I7
I0
tp242
asg39
S'0'
sg40
S"A disgraced Imperial knight now in Althea's service."
p243
sg42
g43
((lp244
S'Mounted'
p245
atRp246
sg47
(lp247
(dp248
g50
Nsg51
Nsg52
Nsg53
(lp249
sg55
Nsg56
Nsg57
Nsg22
S'Canto'
p250
sasg59
(dp251
g61
I39
sg62
I2
sg63
I0
ssg64
I00
sg65
g66
sg67
g227
sg68
(lp252
I11
aI20
aI0
aI0
aI0
aI0
aI0
asg70
S'Sergio'
p253
sg72
I2
sg73
I1
sg74
I0
sg75
I0
sg76
S'Cavalier'
p254
sg78
I80
sg79
S'player'
p255
sg81
(I9
I11
tp256
sa(dp257
g7
S'None'
p258
sg9
(lp259
I75
aI40
aI20
aI40
aI65
aI45
aI25
aI20
aI0
aI0
asg11
I00
sg12
(lp260
(dp261
g15
Nsg16
I00
sg17
I00
sg18
I41
sg19
I00
sg20
S'beautifulcody'
p262
sg22
S'Iron Sword'
p263
sa(dp264
g15
Nsg16
I00
sg17
I00
sg18
I3
sg19
I00
sg20
g262
sg22
S'Vulnerary'
p265
sasg24
(lp266
I50
aI50
aI50
aI50
aI50
aI50
aI50
aI50
aI50
aI50
asg26
I12
sg27
(lp267
(I18
I0
tp268
a(I4
I0
tp269
a(I2
I0
tp270
a(I4
I0
tp271
a(I10
I0
tp272
a(I8
I0
tp273
a(I3
I0
tp274
a(I1
I0
tp275
a(I6
I0
tp276
a(I6
I0
tp277
asg39
S'0'
sg40
S'An energetic thief with a kleptomanic streak.'
p278
sg42
g43
((ltRp279
sg47
(lp280
(dp281
g50
Nsg51
Nsg52
Nsg53
(lp282
sg55
Nsg56
Nsg57
Nsg22
S'Locktouch'
p283
sasg59
(dp284
g61
I25
sg62
I2
sg63
I0
ssg64
I00
sg65
g66
sg67
g262
sg68
(lp285
I20
aI0
aI0
aI0
aI0
aI0
aI0
asg70
S'beautifulcody'
p286
sg72
I0
sg73
I1
sg74
I5
sg75
I0
sg76
S'Thief'
p287
sg78
I80
sg79
S'player'
p288
sg81
(I7
I8
tp289
sa(dp290
g7
S'None'
p291
sg9
(lp292
I90
aI45
aI15
aI35
aI30
aI30
aI55
aI20
aI0
aI0
asg11
I00
sg12
(lp293
(dp294
g15
Nsg16
I00
sg17
I00
sg18
I43
sg19
I00
sg20
S'Sir Carter'
p295
sg22
S'Iron Lance'
p296
sa(dp297
g15
Nsg16
I00
sg17
I00
sg18
I3
sg19
I00
sg20
g295
sg22
S'Vulnerary'
p298
sasg24
(lp299
I50
aI50
aI50
aI50
aI50
aI50
aI50
aI50
aI50
aI50
asg26
I25
sg27
(lp300
(I25
I0
tp301
a(I9
I0
tp302
a(I0
I0
tp303
a(I6
I0
tp304
a(I3
I0
tp305
a(I3
I0
tp306
a(I9
I0
tp307
a(I3
I0
tp308
a(I13
I0
tp309
a(I4
I0
tp310
asg39
S'0'
sg40
S'An avid scholar. Interested in esoteric philosophy.'
p311
sg42
g43
((ltRp312
sg47
(lp313
(dp314
g50
Nsg51
Nsg52
Nsg53
(lp315
I113
aI112
asg55
Nsg56
Nsg57
Nsg22
S'Provoke'
p316
sasg59
(dp317
g61
I22
sg62
I0
sg63
I0
ssg64
I00
sg65
g66
sg67
g295
sg68
(lp318
I0
aI18
aI0
aI0
aI0
aI0
aI0
asg70
S'Sir Carter'
p319
sg72
I1
sg73
I1
sg74
I0
sg75
I0
sg76
S'Knight'
p320
sg78
I20
sg79
S'player'
p321
sg81
(I15
I8
tp322
sa(dp323
g7
S'None'
p324
sg9
(lp325
I80
aI45
aI15
aI35
aI25
aI25
aI45
aI30
aI0
aI0
asg11
I01
sg12
(lp326
(dp327
g15
Nsg16
I00
sg17
I00
sg18
I44
sg19
I00
sg20
S'Not Tracer'
p328
sg22
S'Iron Lance'
p329
sa(dp330
g15
Nsg16
I00
sg17
I00
sg18
I20
sg19
I00
sg20
g328
sg22
S'Javelin'
p331
sasg24
(lp332
I50
aI50
aI50
aI50
aI50
aI50
aI50
aI50
aI50
aI50
asg26
I22
sg27
(lp333
(I22
I0
tp334
a(I4
I0
tp335
a(I0
I0
tp336
a(I1
I0
tp337
a(I1
I0
tp338
a(I1
I0
tp339
a(I3
I0
tp340
a(I1
I0
tp341
a(I6
I0
tp342
a(I5
I0
tp343
asg39
S'0'
sg40
S'A moody, sarcastic soldier.'
p344
sg42
g43
((ltRp345
sg47
(lp346
(dp347
g50
Nsg51
Nsg52
Nsg53
(lp348
sg55
Nsg56
Nsg57
Nsg22
S'Synergy'
p349
sasg59
(dp350
g61
I8
sg62
I0
sg63
I0
ssg64
I00
sg65
g66
sg67
g328
sg68
(lp351
I0
aI22
aI0
aI0
aI0
aI0
aI0
asg70
S'Not Tracer'
p352
sg72
I4
sg73
I1
sg74
I5
sg75
I0
sg76
S'Soldier'
p353
sg78
I10
sg79
S'player'
p354
sg81
Nsa(dp355
g7
S'None'
p356
sg9
(lp357
I65
aI15
aI35
aI45
aI55
aI55
aI40
aI65
aI0
aI0
asg11
I00
sg12
(lp358
(dp359
g15
Nsg16
I00
sg17
I00
sg18
I13
sg19
I00
sg20
S'T Rob'
p360
sg22
S'Mend'
p361
sa(dp362
g15
Nsg16
I00
sg17
I00
sg18
I16
sg19
I00
sg20
g360
sg22
S'Shine'
p363
sa(dp364
g15
Nsg16
I00
sg17
I00
sg18
I9
sg19
I00
sg20
g360
sg22
S'Fortune'
p365
sasg24
(lp366
I50
aI50
aI50
aI50
aI50
aI50
aI50
aI50
aI50
aI50
asg26
I18
sg27
(lp367
(I18
I0
tp368
a(I3
I0
tp369
a(I7
I0
tp370
a(I8
I0
tp371
a(I10
I0
tp372
a(I8
I0
tp373
a(I4
I0
tp374
a(I8
I0
tp375
a(I4
I0
tp376
a(I5
I0
tp377
asg39
S'0'
sg40
S"The resistance's leader. Ambitious and inquisitive."
p378
sg42
g43
((ltRp379
sg47
(lp380
(dp381
g50
Nsg51
Nsg52
Nsg53
(lp382
sg55
Nsg56
Nsg57
Nsg22
S'Inspiration'
p383
sasg59
(dp384
g61
I48
sg62
I2
sg63
I29
ssg64
I00
sg65
g66
sg67
g360
sg68
(lp385
I0
aI0
aI0
aI0
aI38
aI0
aI0
asg70
S'T Rob'
p386
sg72
I5
sg73
I2
sg74
I0
sg75
I0
sg76
S'Tactician'
p387
sg78
I19
sg79
S'player'
p388
sg81
(I9
I12
tp389
sa(dp390
g7
S'None'
p391
sg9
(lp392
I90
aI45
aI5
aI40
aI30
aI30
aI35
aI25
aI0
aI0
asg11
I00
sg12
(lp393
(dp394
g15
Nsg16
I00
sg17
I00
sg18
I15
sg19
I00
sg20
S'Dornstar'
p395
sg22
S'Rusted Sword'
p396
sa(dp397
g15
Nsg16
I00
sg17
I00
sg18
I3
sg19
I00
sg20
g395
sg22
S'Vulnerary'
p398
sasg24
(lp399
I50
aI50
aI50
aI50
aI50
aI50
aI50
aI50
aI50
aI50
asg26
I22
sg27
(lp400
(I20
I5
tp401
a(I9
I0
tp402
a(I0
I0
tp403
a(I11
I0
tp404
a(I9
I0
tp405
a(I4
I0
tp406
a(I5
I0
tp407
a(I2
I0
tp408
a(I9
I0
tp409
a(I5
I0
tp410
asg39
S'0'
sg40
S'A troubled wandererer with a mysterious past.'
p411
sg42
g43
((ltRp412
sg47
(lp413
(dp414
g50
Nsg51
Nsg52
Nsg53
(lp415
sg55
Nsg56
Nsg57
Nsg22
S'Initiative'
p416
sa(dp417
g50
Nsg51
Nsg52
Nsg53
(lp418
sg55
Nsg56
Nsg57
Nsg22
S'fMaximum HP +5'
p419
sasg59
(dp420
g61
I32
sg62
I2
sg63
I0
ssg64
I00
sg65
g66
sg67
g395
sg68
(lp421
I45
aI0
aI0
aI0
aI0
aI0
aI0
asg70
S'Dornstar'
p422
sg72
I4
sg73
I1
sg74
I0
sg75
I0
sg76
S'Mercenary'
p423
sg78
I71
sg79
S'player'
p424
sg81
(I16
I8
tp425
sa(dp426
g7
S'None'
p427
sg9
(lp428
I70
aI5
aI50
aI40
aI35
aI20
aI10
aI45
aI0
aI0
asg11
I00
sg12
(lp429
(dp430
g15
Nsg16
I00
sg17
I00
sg18
I25
sg19
I00
sg20
S'Leech'
p431
sg22
S'Flux'
p432
sa(dp433
g15
Nsg16
I00
sg17
I00
sg18
I9
sg19
I00
sg20
g431
sg22
S'Scathe'
p434
sa(dp435
g15
Nsg16
I00
sg17
I00
sg18
I3
sg19
I00
sg20
g431
sg22
S'Spiritbane'
p436
sasg24
(lp437
I50
aI50
aI50
aI50
aI50
aI50
aI50
aI50
aI50
aI50
asg26
I22
sg27
(lp438
(I23
I0
tp439
a(I1
I0
tp440
a(I10
I0
tp441
a(I9
I0
tp442
a(I5
I2
tp443
a(I0
I0
tp444
a(I2
I0
tp445
a(I7
I0
tp446
a(I7
I0
tp447
a(I4
I0
tp448
asg39
S'0'
sg40
S'A scheming diplomat from the Confederacy.'
p449
sg42
g43
((ltRp450
sg47
(lp451
(dp452
g50
Nsg51
Nsg52
Nsg53
(lp453
sg55
Nsg56
Nsg57
Nsg22
S'Hex'
p454
sa(dp455
g50
Nsg51
Nsg52
Nsg53
(lp456
sg55
Nsg56
Nsg57
Nsg22
S'fSpeed +2'
p457
sasg59
(dp458
g61
I49
sg62
I4
sg63
I0
ssg64
I00
sg65
g66
sg67
g431
sg68
(lp459
I0
aI0
aI0
aI0
aI0
aI0
aI41
asg70
S'Leech'
p460
sg72
I5
sg73
I2
sg74
I5
sg75
I0
sg76
S'Shaman'
p461
sg78
I30
sg79
S'player'
p462
sg81
(I17
I10
tp463
sa(dp464
g7
S'None'
p465
sg9
(lp466
I100
aI50
aI0
aI50
aI0
aI0
aI0
aI0
aI0
aI0
asg11
I00
sg12
(lp467
(dp468
g15
Nsg16
I00
sg17
I00
sg18
I20
sg19
I00
sg20
S'Sidney'
p469
sg22
S'Hand Axe'
p470
sa(dp471
g15
Nsg16
I00
sg17
I00
sg18
I45
sg19
I00
sg20
g469
sg22
S'Iron Axe'
p472
sasg24
(lp473
I50
aI50
aI50
aI50
aI50
aI50
aI50
aI50
aI50
aI50
asg26
I30
sg27
(lp474
(I30
I0
tp475
a(I12
I0
tp476
a(I0
I0
tp477
a(I5
I0
tp478
a(I5
I0
tp479
a(I0
I0
tp480
a(I5
I0
tp481
a(I2
I0
tp482
a(I11
I0
tp483
a(I5
I0
tp484
asg39
S'0'
sg40
S'A cruel Imperial lieutenant.'
p485
sg42
g43
((ltRp486
sg47
(lp487
(dp488
g50
Nsg51
Nsg52
Nsg53
(lp489
sg55
Nsg56
I0
sg57
Nsg22
g143
sasg59
(dp490
g61
I0
sg62
I0
sg63
I0
ssg64
I00
sg65
g66
sg67
g469
sg68
(lp491
I0
aI0
aI1
aI0
aI0
aI0
aI0
asg70
S'Sidney'
p492
sg72
I4
sg73
I4
sg74
I0
sg75
I0
sg76
S'Fighter'
p493
sg78
I0
sg79
S'enemy'
p494
sg81
(I12
I2
tp495
sa(dp496
g7
S'Attack'
p497
sg9
(lp498
I80
aI40
aI15
aI40
aI32
aI30
aI18
aI20
aI0
aI0
asg11
I00
sg12
(lp499
(dp500
g15
Nsg16
I00
sg17
I00
sg18
I46
sg19
I00
sg20
I103
sg22
S'Iron Sword'
p501
sasg24
(lp502
I50
aI50
aI50
aI50
aI50
aI50
aI50
aI50
aI50
aI50
asg26
I18
sg27
(lp503
(I18
I0
tp504
a(I4
I0
tp505
a(I1
I0
tp506
a(I8
I0
tp507
a(I8
I0
tp508
a(I0
I0
tp509
a(I4
I0
tp510
a(I0
I0
tp511
a(I9
I0
tp512
a(I5
I0
tp513
asg39
S'0'
sg40
S''
sg42
g43
((ltRp514
sg47
(lp515
(dp516
g50
Nsg51
Nsg52
Nsg53
(lp517
sg55
Nsg56
Nsg57
Nsg22
g416
sasg59
(dp518
g61
I0
sg62
I0
sg63
I0
ssg64
I00
sg65
S'Resistance'
p519
sg67
I103
sg68
(lp520
I1
aI0
aI0
aI0
aI0
aI0
aI0
asg70
S'Resistance'
p521
sg72
I4
sg73
I2
sg74
I0
sg75
I0
sg76
S'Mercenary'
p522
sg78
I0
sg79
S'enemy'
p523
sg81
Nsa(dp524
g7
S'SoftGuard'
p525
sg9
(lp526
I80
aI40
aI15
aI30
aI15
aI25
aI28
aI20
aI0
aI0
asg11
I00
sg12
(lp527
(dp528
g15
Nsg16
I00
sg17
I00
sg18
I44
sg19
I00
sg20
I108
sg22
S'Iron Lance'
p529
sa(dp530
g15
Nsg16
I00
sg17
I01
sg18
I1
sg19
I00
sg20
I108
sg22
S'Skeleton Key'
p531
sasg24
(lp532
I50
aI50
aI50
aI50
aI50
aI50
aI50
aI50
aI50
aI50
asg26
I13
sg27
(lp533
(I18
I0
tp534
a(I6
I0
tp535
a(I1
I0
tp536
a(I2
I0
tp537
a(I0
I0
tp538
a(I0
I0
tp539
a(I10
I0
tp540
a(I1
I0
tp541
a(I13
I0
tp542
a(I4
I0
tp543
asg39
S'0'
sg40
S''
sg42
g43
((ltRp544
sg47
(lp545
(dp546
g50
Nsg51
Nsg52
Nsg53
(lp547
g120
asg55
Nsg56
Nsg57
Nsg22
g316
sasg59
(dp548
g61
I0
sg62
I0
sg63
I0
ssg64
I00
sg65
g519
sg67
I108
sg68
(lp549
I0
aI1
aI0
aI0
aI0
aI0
aI0
asg70
g521
sg72
I1
sg73
I3
sg74
I0
sg75
I0
sg76
S'Knight'
p550
sg78
I0
sg79
S'enemy'
p551
sg81
(I12
I7
tp552
sa(dp553
g7
S'Attack'
p554
sg9
(lp555
I80
aI40
aI15
aI40
aI32
aI30
aI18
aI20
aI0
aI0
asg11
I00
sg12
(lp556
(dp557
g15
Nsg16
I00
sg17
I00
sg18
I46
sg19
I00
sg20
I114
sg22
S'Iron Sword'
p558
sasg24
(lp559
I50
aI50
aI50
aI50
aI50
aI50
aI50
aI50
aI50
aI50
asg26
I19
sg27
(lp560
(I19
I0
tp561
a(I4
I0
tp562
a(I1
I0
tp563
a(I8
I0
tp564
a(I8
I0
tp565
a(I0
I0
tp566
a(I5
I0
tp567
a(I0
I0
tp568
a(I9
I0
tp569
a(I5
I0
tp570
asg39
S'0'
sg40
S''
sg42
g514
sg47
(lp571
(dp572
g50
Nsg51
Nsg52
Nsg53
(lp573
sg55
Nsg56
Nsg57
Nsg22
g416
sasg59
(dp574
g61
I0
sg62
I0
sg63
I0
ssg64
I00
sg65
g519
sg67
I114
sg68
(lp575
I1
aI0
aI0
aI0
aI0
aI0
aI0
asg70
g521
sg72
I4
sg73
I2
sg74
I0
sg75
I0
sg76
S'Mercenary'
p576
sg78
I0
sg79
S'enemy'
p577
sg81
Nsa(dp578
g7
S'Attack'
p579
sg9
(lp580
I70
aI35
aI10
aI40
aI40
aI30
aI15
aI20
aI0
aI0
asg11
I00
sg12
(lp581
(dp582
g15
Nsg16
I00
sg17
I00
sg18
I45
sg19
I00
sg20
I119
sg22
S'Iron Sword'
p583
sasg24
(lp584
I50
aI50
aI50
aI50
aI50
aI50
aI50
aI50
aI50
aI50
asg26
I10
sg27
(lp585
(I17
I0
tp586
a(I4
I0
tp587
a(I1
I0
tp588
a(I9
I0
tp589
a(I9
I0
tp590
a(I0
I0
tp591
a(I2
I0
tp592
a(I0
I0
tp593
a(I8
I0
tp594
a(I5
I0
tp595
asg39
S'0'
sg40
S''
sg42
g43
((ltRp596
sg47
(lp597
(dp598
g50
Nsg51
Nsg52
Nsg53
(lp599
sg55
Nsg56
Nsg57
Nsg22
g58
sasg59
(dp600
g61
I0
sg62
I0
sg63
I0
ssg64
I00
sg65
g519
sg67
I119
sg68
(lp601
I1
aI0
aI0
aI0
aI0
aI0
aI0
asg70
g521
sg72
I0
sg73
I2
sg74
I0
sg75
I0
sg76
S'Myrmidon'
p602
sg78
I0
sg79
S'enemy'
p603
sg81
(I6
I8
tp604
sasS'convoy'
p605
(lp606
sS'allreinforcements'
p607
(dp608
sS'base_conversations'
p609
ccollections
OrderedDict
p610
((ltRp611
sS'phase_music'
p612
(S'Fire Emblem IfFates + Awakening BGM - Conquest (CalmAblaze Mix Extended)'
p613
S'Battle (Enemy Phase) - Fire Emblem Heroes Music Extended'
p614
Ntp615
sS'playtime'
p616
I1102290
sS'message'
p617
(lp618
sS'unlocked_lore'
p619
(lp620
sS'statistics'
p621
(lp622
sS'market_items'
p623
g43
((ltRp624
sS'support'
p625
NsS'objective'
p626
(S'Defeat Boss'
p627
S'Defeat Boss'
p628
S'Lord dies,OR,Party size falls below 5. Currently {gameStateObj.get_total_party_members()}'
p629
tp630
sS'turncount'
p631
I6
sS'map'
p632
(dp633
S'HP'
p634
(lp635
sS'command_list'
p636
(lp637
ssS'state_list'
p638
((lp639
S'free'
p640
aS'status'
p641
aS'phase_change'
p642
a(lp643
S'pop'
p644
atp645
sS'prefabs'
p646
(dp647
sS'level_constants'
p648
ccollections
Counter
p649
((dtRp650
sS'phase_info'
p651
(I0
I1
tp652
sS'factions'
p653
(dp654
S'Empire'
p655
(S'Empire'
S'Empire'
S''
tp656
sS'Resistance'
p657
(g521
g519
S''
tp658
ssS'triggers'
p659
(dp660
sS'mode'
p661
(dp662
S'autolevel_enemies'
p663
S'0'
sS'death'
p664
I1
sg70
S'Hard'
p665
sS'color'
p666
S'Green'
p667
sS'player_bases'
p668
(lp669
I0
aI0
aI0
aI0
aI0
aI0
aI0
aI0
aI0
aI0
asS'growths'
p670
I0
sS'rng'
p671
S'true_hit'
p672
sS'autolevel_players'
p673
S'0'
sS'enemy_growths'
p674
(lp675
I0
aI0
aI0
aI0
aI0
aI0
aI0
aI0
aI0
aI0
asS'truelevel_enemies'
p676
S'0'
sS'player_growths'
p677
(lp678
I0
aI0
aI0
aI0
aI0
aI0
aI0
aI0
aI0
aI0
asS'enemy_bases'
p679
(lp680
I0
aI0
aI0
aI0
aI0
aI0
aI0
aI0
aI0
aI0
asS'id'
p681
S'1'
sS'tutorial'
p682
S'1'
ssS'game_constants'
p683
g649
((dp684
S'money'
p685
I0
sg73
S'DEBUG'
p686
stRp687
s.