(dp1
S'talk_options'
p2
(lp3
sS'allunits'
p4
(lp5
(dp6
S'ai'
p7
S'None'
p8
sS'growths'
p9
(lp10
I80
aI35
aI0
aI55
aI55
aI30
aI20
aI20
aI0
aI0
asS'dead'
p11
I00
sS'items'
p12
(lp13
(dp14
S'c_uses'
p15
NsS'locked'
p16
I00
sS'droppable'
p17
I00
sS'uses'
p18
I43
sS'event_combat'
p19
I00
sS'owner'
p20
S'Jaeger'
p21
sS'id'
p22
S'Iron Sword'
p23
sasS'growth_points'
p24
(lp25
I50
aI50
aI50
aI50
aI50
aI50
aI50
aI50
aI50
aI50
asS'currenthp'
p26
I7
sS'stats'
p27
(lp28
(I16
I0
tp29
a(I8
I0
tp30
a(I2
I0
tp31
a(I13
I0
tp32
a(I14
I0
tp33
a(I7
I0
tp34
a(I5
I0
tp35
a(I2
I0
tp36
a(I8
I0
tp37
a(I5
I0
tp38
asS'event_id'
p39
S'0'
sS'desc'
p40
S'A strong-hearted renegade who often acts before he thinks.'
p41
sS'tags'
p42
c__builtin__
set
p43
((lp44
S'Lord'
p45
atRp46
sS'status_effects'
p47
(lp48
(dp49
S'count'
p50
NsS'time_left'
p51
NsS'upkeep_sc_count'
p52
NsS'children'
p53
(lp54
sS'parent_id'
p55
NsS'charge'
p56
NsS'rhythm_sc_count'
p57
Nsg22
S'Riposte'
p58
sasS'records'
p59
(dp60
S'damage'
p61
I13
sS'kills'
p62
I1
sS'healing'
p63
I0
ssS'finished'
p64
I00
sS'faction_icon'
p65
S'Neutral'
p66
sS'u_id'
p67
g21
sS'wexp'
p68
(lp69
I10
aI0
aI0
aI0
aI0
aI0
aI0
asS'name'
p70
S'Jaeger'
p71
sS'movement_group'
p72
I0
sS'level'
p73
I1
sS'gender'
p74
I2
sS'TRV'
p75
I0
sS'klass'
p76
S'Myrmidon'
p77
sS'exp'
p78
I31
sS'team'
p79
S'player'
p80
sS'position'
p81
(I9
I15
tp82
sa(dp83
g7
S'None'
p84
sg9
(lp85
I50
aI15
aI60
aI25
aI40
aI60
aI15
aI55
aI0
aI0
asg11
I00
sg12
(lp86
(dp87
g15
Nsg16
I00
sg17
I00
sg18
I29
sg19
I00
sg20
S'NANC'
p88
sg22
S'Heal'
p89
sa(dp90
g15
Nsg16
I00
sg17
I00
sg18
I28
sg19
I00
sg20
g88
sg22
S'Glimmer'
p91
sasg24
(lp92
I50
aI50
aI50
aI50
aI50
aI50
aI50
aI50
aI50
aI50
asg26
I4
sg27
(lp93
(I18
I0
tp94
a(I0
I0
tp95
a(I2
I0
tp96
a(I4
I0
tp97
a(I8
I0
tp98
a(I6
I0
tp99
a(I2
I0
tp100
a(I6
I0
tp101
a(I4
I0
tp102
a(I5
I0
tp103
asg39
S'0'
sg40
S'A shy but kind-hearted young woman. Has an affinity with the spiritual.'
p104
sg42
g43
((ltRp105
sg47
(lp106
(dp107
g50
Nsg51
Nsg52
Nsg53
(lp108
sg55
Nsg56
Nsg57
Nsg22
S'Healtouch'
p109
sasg59
(dp110
g61
I4
sg62
I0
sg63
I12
ssg64
I00
sg65
g66
sg67
g88
sg68
(lp111
I0
aI0
aI0
aI0
aI4
aI0
aI0
asg70
S'NANC'
p112
sg72
I5
sg73
I1
sg74
I7
sg75
I0
sg76
S'Cleric'
p113
sg78
I19
sg79
S'player'
p114
sg81
(I8
I18
tp115
sa(dp116
g7
S'None'
p117
sg9
(lp118
I80
aI65
aI5
aI40
aI20
aI40
aI25
aI15
aI0
aI0
asg11
I00
sg12
(lp119
(dp120
g15
Nsg16
I00
sg17
I00
sg18
I41
sg19
I00
sg20
S'Kenboslice'
p121
sg22
S'Iron Axe'
p122
sa(dp123
g15
Nsg16
I00
sg17
I00
sg18
I3
sg19
I00
sg20
g121
sg22
S'Vulnerary'
p124
sasg24
(lp125
I50
aI50
aI50
aI50
aI50
aI50
aI50
aI50
aI50
aI50
asg26
I20
sg27
(lp126
(I21
I0
tp127
a(I8
I0
tp128
a(I0
I0
tp129
a(I7
I0
tp130
a(I7
I0
tp131
a(I3
I0
tp132
a(I5
I0
tp133
a(I1
I0
tp134
a(I11
I0
tp135
a(I5
I0
tp136
asg39
S'0'
sg40
S'A jovial former sailor. Always ready for a new adventure.'
p137
sg42
g43
((lp138
S'ActiveSkillCharged'
p139
atRp140
sg47
(lp141
(dp142
g50
Nsg51
Nsg52
Nsg53
(lp143
sg55
Nsg56
I15
sg57
Nsg22
S'Cleave'
p144
sasg59
(dp145
g61
I27
sg62
I1
sg63
I0
ssg64
I00
sg65
g66
sg67
g121
sg68
(lp146
I0
aI0
aI19
aI0
aI0
aI0
aI0
asg70
S'Kenboslice'
p147
sg72
I4
sg73
I1
sg74
I0
sg75
I0
sg76
S'Fighter'
p148
sg78
I41
sg79
S'player'
p149
sg81
(I8
I17
tp150
sa(dp151
g7
S'None'
p152
sg9
(lp153
I55
aI45
aI25
aI50
aI60
aI50
aI15
aI35
aI0
aI0
asg11
I00
sg12
(lp154
(dp155
g15
Nsg16
I00
sg17
I00
sg18
I43
sg19
I00
sg20
S'Olive'
p156
sg22
S'Willow Bow'
p157
sa(dp158
g15
Nsg16
I00
sg17
I00
sg18
I3
sg19
I00
sg20
g156
sg22
S'Vulnerary'
p159
sasg24
(lp160
I50
aI50
aI50
aI50
aI50
aI50
aI50
aI50
aI50
aI50
asg26
I11
sg27
(lp161
(I17
I0
tp162
a(I4
I0
tp163
a(I2
I0
tp164
a(I5
I0
tp165
a(I6
I0
tp166
a(I4
I0
tp167
a(I3
I0
tp168
a(I2
I0
tp169
a(I7
I0
tp170
a(I5
I0
tp171
asg39
S'0'
sg40
S'A quiet archer most at home in the wilderness.'
p172
sg42
g43
((ltRp173
sg47
(lp174
(dp175
g50
Nsg51
Nsg52
Nsg53
(lp176
sg55
Nsg56
Nsg57
Nsg22
S'Prescience'
p177
sasg59
(dp178
g61
I9
sg62
I0
sg63
I0
ssg64
I00
sg65
g66
sg67
g156
sg68
(lp179
I0
aI0
aI0
aI18
aI0
aI0
aI0
asg70
S'Olive'
p180
sg72
I0
sg73
I1
sg74
I6
sg75
I0
sg76
S'Archer'
p181
sg78
I21
sg79
S'player'
p182
sg81
(I16
I16
tp183
sa(dp184
g7
S'None'
p185
sg9
(lp186
I55
aI45
aI30
aI50
aI60
aI50
aI15
aI35
aI0
aI0
asg11
I00
sg12
(lp187
(dp188
g15
Nsg16
I00
sg17
I00
sg18
I27
sg19
I00
sg20
S'Mama Coco'
p189
sg22
S'Fire'
p190
sa(dp191
g15
Nsg16
I00
sg17
I00
sg18
I3
sg19
I00
sg20
g189
sg22
S'Vulnerary'
p192
sasg24
(lp193
I50
aI50
aI50
aI50
aI50
aI50
aI50
aI50
aI50
aI50
asg26
I11
sg27
(lp194
(I17
I0
tp195
a(I1
I0
tp196
a(I6
I0
tp197
a(I6
I0
tp198
a(I7
I0
tp199
a(I8
I0
tp200
a(I3
I0
tp201
a(I5
I2
tp202
a(I5
I0
tp203
a(I5
I0
tp204
asg39
S'0'
sg40
S'A forthright but elegant and refined sorceress.'
p205
sg42
g43
((ltRp206
sg47
(lp207
(dp208
g50
Nsg51
Nsg52
Nsg53
(lp209
sg55
Nsg56
Nsg57
Nsg22
S'Resistance +2'
p210
sa(dp211
g50
Nsg51
Nsg52
Nsg53
(lp212
sg55
Nsg56
Nsg57
Nsg22
S'Focus'
p213
sasg59
(dp214
g61
I17
sg62
I1
sg63
I0
ssg64
I00
sg65
g66
sg67
g189
sg68
(lp215
I0
aI0
aI0
aI0
aI0
aI9
aI0
asg70
S'Mama Coco'
p216
sg72
I5
sg73
I1
sg74
I5
sg75
I0
sg76
S'Mage'
p217
sg78
I41
sg79
S'player'
p218
sg81
(I22
I16
tp219
sa(dp220
g7
S'None'
p221
sg9
(lp222
I80
aI40
aI5
aI40
aI50
aI40
aI25
aI20
aI0
aI0
asg11
I00
sg12
(lp223
(dp224
g15
Nsg16
I00
sg17
I00
sg18
I43
sg19
I00
sg20
S'Sergio'
p225
sg22
S'Iron Lance'
p226
sa(dp227
g15
Nsg16
I00
sg17
I00
sg18
I46
sg19
I00
sg20
g225
sg22
S'Iron Sword'
p228
sasg24
(lp229
I50
aI50
aI50
aI50
aI50
aI50
aI50
aI50
aI50
aI50
asg26
I17
sg27
(lp230
(I20
I0
tp231
a(I7
I0
tp232
a(I1
I0
tp233
a(I5
I0
tp234
a(I7
I0
tp235
a(I2
I0
tp236
a(I6
I0
tp237
a(I1
I0
tp238
a(I9
I0
tp239
a(I7
I0
tp240
asg39
S'0'
sg40
S"A disgraced Imperial knight now in Althea's service."
p241
sg42
g43
((lp242
S'Mounted'
p243
atRp244
sg47
(lp245
(dp246
g50
Nsg51
Nsg52
Nsg53
(lp247
sg55
Nsg56
Nsg57
Nsg22
S'Canto'
p248
sasg59
(dp249
g61
I20
sg62
I1
sg63
I0
ssg64
I00
sg65
g66
sg67
g225
sg68
(lp250
I11
aI18
aI0
aI0
aI0
aI0
aI0
asg70
S'Sergio'
p251
sg72
I2
sg73
I1
sg74
I0
sg75
I0
sg76
S'Cavalier'
p252
sg78
I40
sg79
S'player'
p253
sg81
(I8
I14
tp254
sa(dp255
g7
S'None'
p256
sg9
(lp257
I75
aI40
aI20
aI40
aI65
aI45
aI25
aI20
aI0
aI0
asg11
I00
sg12
(lp258
(dp259
g15
Nsg16
I00
sg17
I00
sg18
I45
sg19
I00
sg20
S'beautifulcody'
p260
sg22
S'Iron Sword'
p261
sa(dp262
g15
Nsg16
I00
sg17
I00
sg18
I3
sg19
I00
sg20
g260
sg22
S'Vulnerary'
p263
sasg24
(lp264
I50
aI50
aI50
aI50
aI50
aI50
aI50
aI50
aI50
aI50
asg26
I12
sg27
(lp265
(I18
I0
tp266
a(I4
I0
tp267
a(I2
I0
tp268
a(I4
I0
tp269
a(I10
I0
tp270
a(I8
I0
tp271
a(I3
I0
tp272
a(I1
I0
tp273
a(I6
I0
tp274
a(I6
I0
tp275
asg39
S'0'
sg40
S'An energetic thief with a kleptomanic streak.'
p276
sg42
g43
((ltRp277
sg47
(lp278
(dp279
g50
Nsg51
Nsg52
Nsg53
(lp280
sg55
Nsg56
Nsg57
Nsg22
S'Locktouch'
p281
sasg59
(dp282
g61
I5
sg62
I0
sg63
I0
ssg64
I00
sg65
g66
sg67
g260
sg68
(lp283
I17
aI0
aI0
aI0
aI0
aI0
aI0
asg70
S'beautifulcody'
p284
sg72
I0
sg73
I1
sg74
I5
sg75
I0
sg76
S'Thief'
p285
sg78
I10
sg79
S'player'
p286
sg81
(I7
I17
tp287
sa(dp288
g7
S'None'
p289
sg9
(lp290
I90
aI45
aI15
aI35
aI30
aI30
aI55
aI20
aI0
aI0
asg11
I00
sg12
(lp291
(dp292
g15
Nsg16
I00
sg17
I00
sg18
I43
sg19
I00
sg20
S'Sir Carter'
p293
sg22
S'Iron Lance'
p294
sa(dp295
g15
Nsg16
I00
sg17
I00
sg18
I3
sg19
I00
sg20
g293
sg22
S'Vulnerary'
p296
sasg24
(lp297
I50
aI50
aI50
aI50
aI50
aI50
aI50
aI50
aI50
aI50
asg26
I25
sg27
(lp298
(I25
I0
tp299
a(I9
I0
tp300
a(I0
I0
tp301
a(I6
I0
tp302
a(I3
I0
tp303
a(I3
I0
tp304
a(I9
I0
tp305
a(I3
I0
tp306
a(I13
I0
tp307
a(I4
I0
tp308
asg39
S'0'
sg40
S'An avid scholar. Interested in esoteric philosophy.'
p309
sg42
g43
((ltRp310
sg47
(lp311
(dp312
g50
Nsg51
Nsg52
Nsg53
(lp313
I113
aI112
asg55
Nsg56
Nsg57
Nsg22
S'Provoke'
p314
sasg59
(dp315
g61
I22
sg62
I0
sg63
I0
ssg64
I00
sg65
g66
sg67
g293
sg68
(lp316
I0
aI18
aI0
aI0
aI0
aI0
aI0
asg70
S'Sir Carter'
p317
sg72
I1
sg73
I1
sg74
I0
sg75
I0
sg76
S'Knight'
p318
sg78
I20
sg79
S'player'
p319
sg81
(I20
I15
tp320
sa(dp321
g7
S'None'
p322
sg9
(lp323
I80
aI45
aI15
aI35
aI25
aI25
aI45
aI30
aI0
aI0
asg11
I01
sg12
(lp324
(dp325
g15
Nsg16
I00
sg17
I00
sg18
I44
sg19
I00
sg20
S'Not Tracer'
p326
sg22
S'Iron Lance'
p327
sa(dp328
g15
Nsg16
I00
sg17
I00
sg18
I20
sg19
I00
sg20
g326
sg22
S'Javelin'
p329
sasg24
(lp330
I50
aI50
aI50
aI50
aI50
aI50
aI50
aI50
aI50
aI50
asg26
I22
sg27
(lp331
(I22
I0
tp332
a(I4
I0
tp333
a(I0
I0
tp334
a(I1
I0
tp335
a(I1
I0
tp336
a(I1
I0
tp337
a(I3
I0
tp338
a(I1
I0
tp339
a(I6
I0
tp340
a(I5
I0
tp341
asg39
S'0'
sg40
S'A moody, sarcastic soldier.'
p342
sg42
g43
((ltRp343
sg47
(lp344
(dp345
g50
Nsg51
Nsg52
Nsg53
(lp346
sg55
Nsg56
Nsg57
Nsg22
S'Synergy'
p347
sasg59
(dp348
g61
I8
sg62
I0
sg63
I0
ssg64
I00
sg65
g66
sg67
g326
sg68
(lp349
I0
aI22
aI0
aI0
aI0
aI0
aI0
asg70
S'Not Tracer'
p350
sg72
I4
sg73
I1
sg74
I5
sg75
I0
sg76
S'Soldier'
p351
sg78
I10
sg79
S'player'
p352
sg81
Nsa(dp353
g7
S'None'
p354
sg9
(lp355
I65
aI15
aI35
aI45
aI55
aI55
aI40
aI65
aI0
aI0
asg11
I00
sg12
(lp356
(dp357
g15
Nsg16
I00
sg17
I00
sg18
I16
sg19
I00
sg20
S'T Rob'
p358
sg22
S'Shine'
p359
sa(dp360
g15
Nsg16
I00
sg17
I00
sg18
I15
sg19
I00
sg20
g358
sg22
S'Mend'
p361
sa(dp362
g15
Nsg16
I00
sg17
I00
sg18
I10
sg19
I00
sg20
g358
sg22
S'Fortune'
p363
sasg24
(lp364
I50
aI50
aI50
aI50
aI50
aI50
aI50
aI50
aI50
aI50
asg26
I13
sg27
(lp365
(I18
I0
tp366
a(I3
I0
tp367
a(I7
I0
tp368
a(I8
I0
tp369
a(I9
I0
tp370
a(I7
I0
tp371
a(I3
I0
tp372
a(I7
I0
tp373
a(I4
I0
tp374
a(I5
I0
tp375
asg39
S'0'
sg40
S"The resistance's leader. Ambitious and inquisitive."
p376
sg42
g43
((ltRp377
sg47
(lp378
(dp379
g50
Nsg51
Nsg52
Nsg53
(lp380
sg55
Nsg56
Nsg57
Nsg22
S'Inspiration'
p381
sasg59
(dp382
g61
I48
sg62
I2
sg63
I0
ssg64
I00
sg65
g66
sg67
g358
sg68
(lp383
I0
aI0
aI0
aI0
aI35
aI0
aI0
asg70
S'T Rob'
p384
sg72
I5
sg73
I1
sg74
I0
sg75
I0
sg76
S'Tactician'
p385
sg78
I80
sg79
S'player'
p386
sg81
(I15
I14
tp387
sa(dp388
g7
S'None'
p389
sg9
(lp390
I90
aI45
aI5
aI40
aI30
aI30
aI35
aI25
aI0
aI0
asg11
I00
sg12
(lp391
(dp392
g15
Nsg16
I00
sg17
I00
sg18
I17
sg19
I00
sg20
S'Dornstar'
p393
sg22
S'Rusted Sword'
p394
sa(dp395
g15
Nsg16
I00
sg17
I00
sg18
I3
sg19
I00
sg20
g393
sg22
S'Vulnerary'
p396
sasg24
(lp397
I50
aI50
aI50
aI50
aI50
aI50
aI50
aI50
aI50
aI50
asg26
I22
sg27
(lp398
(I20
I5
tp399
a(I9
I0
tp400
a(I0
I0
tp401
a(I11
I0
tp402
a(I9
I0
tp403
a(I4
I0
tp404
a(I5
I0
tp405
a(I2
I0
tp406
a(I9
I0
tp407
a(I5
I0
tp408
asg39
S'0'
sg40
S'A troubled wandererer with a mysterious past.'
p409
sg42
g43
((ltRp410
sg47
(lp411
(dp412
g50
Nsg51
Nsg52
Nsg53
(lp413
sg55
Nsg56
Nsg57
Nsg22
S'Initiative'
p414
sa(dp415
g50
Nsg51
Nsg52
Nsg53
(lp416
sg55
Nsg56
Nsg57
Nsg22
S'fMaximum HP +5'
p417
sasg59
(dp418
g61
I11
sg62
I1
sg63
I0
ssg64
I00
sg65
g66
sg67
g393
sg68
(lp419
I44
aI0
aI0
aI0
aI0
aI0
aI0
asg70
S'Dornstar'
p420
sg72
I4
sg73
I1
sg74
I0
sg75
I0
sg76
S'Mercenary'
p421
sg78
I41
sg79
S'player'
p422
sg81
(I19
I14
tp423
sa(dp424
g7
S'None'
p425
sg9
(lp426
I70
aI5
aI50
aI40
aI35
aI20
aI10
aI45
aI0
aI0
asg11
I00
sg12
(lp427
(dp428
g15
Nsg16
I00
sg17
I00
sg18
I27
sg19
I00
sg20
S'Leech'
p429
sg22
S'Flux'
p430
sa(dp431
g15
Nsg16
I00
sg17
I00
sg18
I10
sg19
I00
sg20
g429
sg22
S'Scathe'
p432
sa(dp433
g15
Nsg16
I00
sg17
I00
sg18
I3
sg19
I00
sg20
g429
sg22
S'Spiritbane'
p434
sasg24
(lp435
I50
aI50
aI50
aI50
aI50
aI50
aI50
aI50
aI50
aI50
asg26
I22
sg27
(lp436
(I22
I0
tp437
a(I1
I0
tp438
a(I10
I0
tp439
a(I8
I0
tp440
a(I5
I2
tp441
a(I0
I0
tp442
a(I2
I0
tp443
a(I7
I0
tp444
a(I7
I0
tp445
a(I4
I0
tp446
asg39
S'0'
sg40
S'A scheming diplomat from the Confederacy.'
p447
sg42
g43
((ltRp448
sg47
(lp449
(dp450
g50
Nsg51
Nsg52
Nsg53
(lp451
sg55
Nsg56
Nsg57
Nsg22
S'Hex'
p452
sa(dp453
g50
Nsg51
Nsg52
Nsg53
(lp454
sg55
Nsg56
Nsg57
Nsg22
S'fSpeed +2'
p455
sasg59
(dp456
g61
I26
sg62
I2
sg63
I0
ssg64
I00
sg65
g66
sg67
g429
sg68
(lp457
I0
aI0
aI0
aI0
aI0
aI0
aI38
asg70
S'Leech'
p458
sg72
I5
sg73
I1
sg74
I5
sg75
I0
sg76
S'Shaman'
p459
sg78
I60
sg79
S'player'
p460
sg81
(I17
I15
tp461
sa(dp462
g7
S'None'
p463
sg9
(lp464
I100
aI50
aI0
aI50
aI0
aI0
aI0
aI0
aI0
aI0
asg11
I00
sg12
(lp465
(dp466
g15
Nsg16
I00
sg17
I00
sg18
I20
sg19
I00
sg20
S'Sidney'
p467
sg22
S'Hand Axe'
p468
sa(dp469
g15
Nsg16
I00
sg17
I00
sg18
I45
sg19
I00
sg20
g467
sg22
S'Iron Axe'
p470
sasg24
(lp471
I50
aI50
aI50
aI50
aI50
aI50
aI50
aI50
aI50
aI50
asg26
I30
sg27
(lp472
(I30
I0
tp473
a(I12
I0
tp474
a(I0
I0
tp475
a(I5
I0
tp476
a(I5
I0
tp477
a(I0
I0
tp478
a(I5
I0
tp479
a(I2
I0
tp480
a(I11
I0
tp481
a(I5
I0
tp482
asg39
S'0'
sg40
S'A cruel Imperial lieutenant.'
p483
sg42
g43
((ltRp484
sg47
(lp485
(dp486
g50
Nsg51
Nsg52
Nsg53
(lp487
sg55
Nsg56
I0
sg57
Nsg22
g144
sasg59
(dp488
g61
I0
sg62
I0
sg63
I0
ssg64
I00
sg65
g66
sg67
g467
sg68
(lp489
I0
aI0
aI1
aI0
aI0
aI0
aI0
asg70
S'Sidney'
p490
sg72
I4
sg73
I4
sg74
I0
sg75
I0
sg76
S'Fighter'
p491
sg78
I0
sg79
S'enemy'
p492
sg81
(I12
I2
tp493
sa(dp494
g7
S'Attack'
p495
sg9
(lp496
I80
aI40
aI15
aI40
aI32
aI30
aI18
aI20
aI0
aI0
asg11
I00
sg12
(lp497
(dp498
g15
Nsg16
I00
sg17
I00
sg18
I44
sg19
I00
sg20
I102
sg22
S'Iron Sword'
p499
sasg24
(lp500
I50
aI50
aI50
aI50
aI50
aI50
aI50
aI50
aI50
aI50
asg26
I14
sg27
(lp501
(I18
I0
tp502
a(I4
I0
tp503
a(I1
I0
tp504
a(I8
I0
tp505
a(I8
I0
tp506
a(I0
I0
tp507
a(I4
I0
tp508
a(I0
I0
tp509
a(I9
I0
tp510
a(I5
I0
tp511
asg39
S'0'
sg40
S''
sg42
g43
((ltRp512
sg47
(lp513
(dp514
g50
Nsg51
Nsg52
Nsg53
(lp515
sg55
Nsg56
Nsg57
Nsg22
g414
sa(dp516
g50
Nsg51
I2
sg52
Nsg53
(lp517
sg55
g88
sg56
Nsg57
Nsg22
S'Dazzle'
p518
sasg59
(dp519
g61
I0
sg62
I0
sg63
I0
ssg64
I00
sg65
S'Resistance'
p520
sg67
I102
sg68
(lp521
I1
aI0
aI0
aI0
aI0
aI0
aI0
asg70
S'Resistance'
p522
sg72
I4
sg73
I1
sg74
I0
sg75
I0
sg76
S'Mercenary'
p523
sg78
I0
sg79
S'enemy'
p524
sg81
(I7
I18
tp525
sa(dp526
g7
S'Attack'
p527
sg9
(lp528
I80
aI40
aI15
aI40
aI32
aI30
aI18
aI20
aI0
aI0
asg11
I00
sg12
(lp529
(dp530
g15
Nsg16
I00
sg17
I00
sg18
I46
sg19
I00
sg20
I103
sg22
S'Iron Sword'
p531
sasg24
(lp532
I50
aI50
aI50
aI50
aI50
aI50
aI50
aI50
aI50
aI50
asg26
I18
sg27
(lp533
(I18
I0
tp534
a(I4
I0
tp535
a(I1
I0
tp536
a(I8
I0
tp537
a(I8
I0
tp538
a(I0
I0
tp539
a(I4
I0
tp540
a(I0
I0
tp541
a(I9
I0
tp542
a(I5
I0
tp543
asg39
S'0'
sg40
S''
sg42
g512
sg47
(lp544
(dp545
g50
Nsg51
Nsg52
Nsg53
(lp546
sg55
Nsg56
Nsg57
Nsg22
g414
sasg59
(dp547
g61
I0
sg62
I0
sg63
I0
ssg64
I00
sg65
g520
sg67
I103
sg68
(lp548
I1
aI0
aI0
aI0
aI0
aI0
aI0
asg70
g522
sg72
I4
sg73
I2
sg74
I0
sg75
I0
sg76
S'Mercenary'
p549
sg78
I0
sg79
S'enemy'
p550
sg81
Nsa(dp551
g7
S'SoftGuard'
p552
sg9
(lp553
I80
aI40
aI15
aI30
aI15
aI25
aI28
aI20
aI0
aI0
asg11
I00
sg12
(lp554
(dp555
g15
Nsg16
I00
sg17
I00
sg18
I45
sg19
I00
sg20
I108
sg22
S'Iron Lance'
p556
sa(dp557
g15
Nsg16
I00
sg17
I01
sg18
I1
sg19
I00
sg20
I108
sg22
S'Skeleton Key'
p558
sasg24
(lp559
I50
aI50
aI50
aI50
aI50
aI50
aI50
aI50
aI50
aI50
asg26
I18
sg27
(lp560
(I18
I0
tp561
a(I6
I0
tp562
a(I1
I0
tp563
a(I2
I0
tp564
a(I0
I0
tp565
a(I0
I0
tp566
a(I10
I0
tp567
a(I1
I0
tp568
a(I13
I0
tp569
a(I4
I0
tp570
asg39
S'0'
sg40
S''
sg42
g43
((ltRp571
sg47
(lp572
(dp573
g50
Nsg51
Nsg52
Nsg53
(lp574
sg55
Nsg56
Nsg57
Nsg22
g314
sasg59
(dp575
g61
I0
sg62
I0
sg63
I0
ssg64
I00
sg65
g520
sg67
I108
sg68
(lp576
I0
aI1
aI0
aI0
aI0
aI0
aI0
asg70
g522
sg72
I1
sg73
I3
sg74
I0
sg75
I0
sg76
S'Knight'
p577
sg78
I0
sg79
S'enemy'
p578
sg81
(I12
I6
tp579
sa(dp580
g7
S'Attack'
p581
sg9
(lp582
I80
aI40
aI15
aI40
aI32
aI30
aI18
aI20
aI0
aI0
asg11
I00
sg12
(lp583
(dp584
g15
Nsg16
I00
sg17
I00
sg18
I45
sg19
I00
sg20
I109
sg22
S'Iron Lance'
p585
sasg24
(lp586
I50
aI50
aI50
aI50
aI50
aI50
aI50
aI50
aI50
aI50
asg26
I19
sg27
(lp587
(I19
I0
tp588
a(I4
I0
tp589
a(I1
I0
tp590
a(I9
I0
tp591
a(I8
I0
tp592
a(I0
I0
tp593
a(I4
I0
tp594
a(I0
I0
tp595
a(I9
I0
tp596
a(I5
I0
tp597
asg39
S'0'
sg40
S''
sg42
g43
((ltRp598
sg47
(lp599
(dp600
g50
Nsg51
Nsg52
Nsg53
(lp601
sg55
Nsg56
Nsg57
Nsg22
S'Fleet_of_Foot'
p602
sasg59
(dp603
g61
I0
sg62
I0
sg63
I0
ssg64
I00
sg65
g520
sg67
I109
sg68
(lp604
I0
aI1
aI0
aI0
aI0
aI0
aI0
asg70
g522
sg72
I0
sg73
I2
sg74
I0
sg75
I0
sg76
S'Skirmisher'
p605
sg78
I0
sg79
S'enemy'
p606
sg81
(I12
I7
tp607
sa(dp608
g7
S'Attack'
p609
sg9
(lp610
I85
aI55
aI15
aI35
aI30
aI15
aI15
aI15
aI0
aI0
asg11
I00
sg12
(lp611
(dp612
g15
Nsg16
I00
sg17
I00
sg18
I45
sg19
I00
sg20
I110
sg22
S'Iron Axe'
p613
sasg24
(lp614
I50
aI50
aI50
aI50
aI50
aI50
aI50
aI50
aI50
aI50
asg26
I21
sg27
(lp615
(I21
I0
tp616
a(I6
I0
tp617
a(I1
I0
tp618
a(I2
I0
tp619
a(I4
I0
tp620
a(I0
I0
tp621
a(I2
I0
tp622
a(I0
I0
tp623
a(I11
I0
tp624
a(I5
I0
tp625
asg39
S'0'
sg40
S''
sg42
g43
((ltRp626
sg47
(lp627
(dp628
g50
Nsg51
Nsg52
Nsg53
(lp629
sg55
Nsg56
I0
sg57
Nsg22
g144
sasg59
(dp630
g61
I0
sg62
I0
sg63
I0
ssg64
I00
sg65
g520
sg67
I110
sg68
(lp631
I0
aI0
aI1
aI0
aI0
aI0
aI0
asg70
g522
sg72
I4
sg73
I2
sg74
I0
sg75
I0
sg76
S'Fighter'
p632
sg78
I0
sg79
S'enemy'
p633
sg81
(I20
I7
tp634
sa(dp635
g7
S'Attack'
p636
sg9
(lp637
I80
aI40
aI15
aI40
aI32
aI30
aI18
aI20
aI0
aI0
asg11
I00
sg12
(lp638
(dp639
g15
Nsg16
I00
sg17
I00
sg18
I44
sg19
I00
sg20
I111
sg22
S'Iron Sword'
p640
sasg24
(lp641
I50
aI50
aI50
aI50
aI50
aI50
aI50
aI50
aI50
aI50
asg26
I13
sg27
(lp642
(I18
I0
tp643
a(I4
I0
tp644
a(I1
I0
tp645
a(I8
I0
tp646
a(I8
I0
tp647
a(I0
I0
tp648
a(I4
I0
tp649
a(I0
I0
tp650
a(I9
I0
tp651
a(I5
I0
tp652
asg39
S'0'
sg40
S''
sg42
g512
sg47
(lp653
(dp654
g50
Nsg51
Nsg52
Nsg53
(lp655
sg55
Nsg56
Nsg57
Nsg22
g414
sasg59
(dp656
g61
I0
sg62
I0
sg63
I0
ssg64
I00
sg65
g520
sg67
I111
sg68
(lp657
I1
aI0
aI0
aI0
aI0
aI0
aI0
asg70
g522
sg72
I4
sg73
I1
sg74
I0
sg75
I0
sg76
S'Mercenary'
p658
sg78
I0
sg79
S'enemy'
p659
sg81
(I7
I16
tp660
sa(dp661
g7
S'Attack'
p662
sg9
(lp663
I80
aI40
aI15
aI40
aI32
aI30
aI18
aI20
aI0
aI0
asg11
I00
sg12
(lp664
(dp665
g15
Nsg16
I00
sg17
I00
sg18
I46
sg19
I00
sg20
I114
sg22
S'Iron Sword'
p666
sasg24
(lp667
I50
aI50
aI50
aI50
aI50
aI50
aI50
aI50
aI50
aI50
asg26
I19
sg27
(lp668
(I19
I0
tp669
a(I4
I0
tp670
a(I1
I0
tp671
a(I8
I0
tp672
a(I8
I0
tp673
a(I0
I0
tp674
a(I5
I0
tp675
a(I0
I0
tp676
a(I9
I0
tp677
a(I5
I0
tp678
asg39
S'0'
sg40
S''
sg42
g512
sg47
(lp679
(dp680
g50
Nsg51
Nsg52
Nsg53
(lp681
sg55
Nsg56
Nsg57
Nsg22
g414
sasg59
(dp682
g61
I0
sg62
I0
sg63
I0
ssg64
I00
sg65
g520
sg67
I114
sg68
(lp683
I1
aI0
aI0
aI0
aI0
aI0
aI0
asg70
g522
sg72
I4
sg73
I2
sg74
I0
sg75
I0
sg76
S'Mercenary'
p684
sg78
I0
sg79
S'enemy'
p685
sg81
Nsa(dp686
g7
S'Attack'
p687
sg9
(lp688
I80
aI40
aI15
aI40
aI32
aI30
aI18
aI20
aI0
aI0
asg11
I00
sg12
(lp689
(dp690
g15
Nsg16
I00
sg17
I00
sg18
I44
sg19
I00
sg20
I115
sg22
S'Iron Sword'
p691
sasg24
(lp692
I50
aI50
aI50
aI50
aI50
aI50
aI50
aI50
aI50
aI50
asg26
I19
sg27
(lp693
(I19
I0
tp694
a(I4
I0
tp695
a(I1
I0
tp696
a(I8
I0
tp697
a(I9
I0
tp698
a(I1
I0
tp699
a(I4
I0
tp700
a(I0
I0
tp701
a(I9
I0
tp702
a(I5
I0
tp703
asg39
S'0'
sg40
S''
sg42
g512
sg47
(lp704
(dp705
g50
Nsg51
Nsg52
Nsg53
(lp706
sg55
Nsg56
Nsg57
Nsg22
g414
sasg59
(dp707
g61
I0
sg62
I0
sg63
I0
ssg64
I00
sg65
g520
sg67
I115
sg68
(lp708
I1
aI0
aI0
aI0
aI0
aI0
aI0
asg70
g522
sg72
I4
sg73
I2
sg74
I0
sg75
I0
sg76
S'Mercenary'
p709
sg78
I0
sg79
S'enemy'
p710
sg81
(I9
I14
tp711
sa(dp712
g7
S'Attack'
p713
sg9
(lp714
I85
aI55
aI15
aI35
aI30
aI15
aI15
aI15
aI0
aI0
asg11
I00
sg12
(lp715
(dp716
g15
Nsg16
I00
sg17
I00
sg18
I45
sg19
I00
sg20
I118
sg22
S'Iron Axe'
p717
sasg24
(lp718
I50
aI50
aI50
aI50
aI50
aI50
aI50
aI50
aI50
aI50
asg26
I21
sg27
(lp719
(I21
I0
tp720
a(I6
I0
tp721
a(I0
I0
tp722
a(I3
I0
tp723
a(I4
I0
tp724
a(I0
I0
tp725
a(I2
I0
tp726
a(I0
I0
tp727
a(I11
I0
tp728
a(I5
I0
tp729
asg39
S'0'
sg40
S''
sg42
g626
sg47
(lp730
(dp731
g50
Nsg51
Nsg52
Nsg53
(lp732
sg55
Nsg56
I0
sg57
Nsg22
g144
sasg59
(dp733
g61
I0
sg62
I0
sg63
I0
ssg64
I00
sg65
g520
sg67
I118
sg68
(lp734
I0
aI0
aI1
aI0
aI0
aI0
aI0
asg70
g522
sg72
I4
sg73
I2
sg74
I0
sg75
I0
sg76
S'Fighter'
p735
sg78
I0
sg79
S'enemy'
p736
sg81
(I4
I7
tp737
sa(dp738
g7
S'Attack'
p739
sg9
(lp740
I70
aI35
aI10
aI40
aI40
aI30
aI15
aI20
aI0
aI0
asg11
I00
sg12
(lp741
(dp742
g15
Nsg16
I00
sg17
I00
sg18
I46
sg19
I00
sg20
I119
sg22
S'Iron Sword'
p743
sasg24
(lp744
I50
aI50
aI50
aI50
aI50
aI50
aI50
aI50
aI50
aI50
asg26
I17
sg27
(lp745
(I17
I0
tp746
a(I4
I0
tp747
a(I1
I0
tp748
a(I9
I0
tp749
a(I9
I0
tp750
a(I0
I0
tp751
a(I2
I0
tp752
a(I0
I0
tp753
a(I8
I0
tp754
a(I5
I0
tp755
asg39
S'0'
sg40
S''
sg42
g43
((ltRp756
sg47
(lp757
(dp758
g50
Nsg51
Nsg52
Nsg53
(lp759
sg55
Nsg56
Nsg57
Nsg22
g58
sasg59
(dp760
g61
I0
sg62
I0
sg63
I0
ssg64
I00
sg65
g520
sg67
I119
sg68
(lp761
I1
aI0
aI0
aI0
aI0
aI0
aI0
asg70
g522
sg72
I0
sg73
I2
sg74
I0
sg75
I0
sg76
S'Myrmidon'
p762
sg78
I0
sg79
S'enemy'
p763
sg81
(I2
I9
tp764
sa(dp765
g7
S'Attack'
p766
sg9
(lp767
I80
aI50
aI15
aI30
aI20
aI25
aI12
aI15
aI0
aI0
asg11
I00
sg12
(lp768
(dp769
g15
Nsg16
I00
sg17
I00
sg18
I44
sg19
I00
sg20
I120
sg22
S'Iron Lance'
p770
sasg24
(lp771
I50
aI50
aI50
aI50
aI50
aI50
aI50
aI50
aI50
aI50
asg26
I9
sg27
(lp772
(I21
I0
tp773
a(I4
I0
tp774
a(I0
I0
tp775
a(I1
I0
tp776
a(I1
I0
tp777
a(I0
I0
tp778
a(I0
I0
tp779
a(I0
I0
tp780
a(I6
I0
tp781
a(I5
I0
tp782
asg39
S'0'
sg40
S''
sg42
g43
((ltRp783
sg47
(lp784
(dp785
g50
Nsg51
Nsg52
Nsg53
(lp786
sg55
Nsg56
Nsg57
Nsg22
g347
sasg59
(dp787
g61
I0
sg62
I0
sg63
I0
ssg64
I00
sg65
g520
sg67
I120
sg68
(lp788
I0
aI1
aI0
aI0
aI0
aI0
aI0
asg70
g522
sg72
I4
sg73
I2
sg74
I0
sg75
I0
sg76
S'Soldier'
p789
sg78
I0
sg79
S'enemy'
p790
sg81
(I8
I13
tp791
sa(dp792
g7
S'Attack'
p793
sg9
(lp794
I80
aI50
aI15
aI30
aI20
aI25
aI12
aI15
aI0
aI0
asg11
I00
sg12
(lp795
(dp796
g15
Nsg16
I00
sg17
I00
sg18
I44
sg19
I00
sg20
I121
sg22
S'Iron Lance'
p797
sasg24
(lp798
I50
aI50
aI50
aI50
aI50
aI50
aI50
aI50
aI50
aI50
asg26
I9
sg27
(lp799
(I20
I0
tp800
a(I3
I0
tp801
a(I0
I0
tp802
a(I0
I0
tp803
a(I1
I0
tp804
a(I0
I0
tp805
a(I0
I0
tp806
a(I0
I0
tp807
a(I6
I0
tp808
a(I5
I0
tp809
asg39
S'0'
sg40
S''
sg42
g783
sg47
(lp810
(dp811
g50
Nsg51
Nsg52
Nsg53
(lp812
sg55
Nsg56
Nsg57
Nsg22
g347
sasg59
(dp813
g61
I0
sg62
I0
sg63
I0
ssg64
I00
sg65
g520
sg67
I121
sg68
(lp814
I0
aI1
aI0
aI0
aI0
aI0
aI0
asg70
g522
sg72
I4
sg73
I2
sg74
I0
sg75
I0
sg76
S'Soldier'
p815
sg78
I0
sg79
S'enemy'
p816
sg81
(I16
I14
tp817
sa(dp818
g7
S'Attack'
p819
sg9
(lp820
I70
aI35
aI10
aI40
aI40
aI30
aI15
aI20
aI0
aI0
asg11
I00
sg12
(lp821
(dp822
g15
Nsg16
I00
sg17
I00
sg18
I45
sg19
I00
sg20
I122
sg22
S'Iron Sword'
p823
sasg24
(lp824
I50
aI50
aI50
aI50
aI50
aI50
aI50
aI50
aI50
aI50
asg26
I6
sg27
(lp825
(I16
I0
tp826
a(I4
I0
tp827
a(I1
I0
tp828
a(I9
I0
tp829
a(I9
I0
tp830
a(I0
I0
tp831
a(I2
I0
tp832
a(I0
I0
tp833
a(I8
I0
tp834
a(I5
I0
tp835
asg39
S'0'
sg40
S''
sg42
g756
sg47
(lp836
(dp837
g50
Nsg51
Nsg52
Nsg53
(lp838
sg55
Nsg56
Nsg57
Nsg22
g58
sasg59
(dp839
g61
I0
sg62
I0
sg63
I0
ssg64
I00
sg65
g520
sg67
I122
sg68
(lp840
I1
aI0
aI0
aI0
aI0
aI0
aI0
asg70
g522
sg72
I0
sg73
I1
sg74
I0
sg75
I0
sg76
S'Myrmidon'
p841
sg78
I0
sg79
S'enemy'
p842
sg81
(I22
I15
tp843
sasS'convoy'
p844
(lp845
sS'allreinforcements'
p846
(dp847
sS'base_conversations'
p848
ccollections
OrderedDict
p849
((ltRp850
sS'phase_music'
p851
(S'Fire Emblem IfFates + Awakening BGM - Conquest (CalmAblaze Mix Extended)'
p852
S'Battle (Enemy Phase) - Fire Emblem Heroes Music Extended'
p853
Ntp854
sS'playtime'
p855
I629814
sS'message'
p856
(lp857
sS'unlocked_lore'
p858
(lp859
sS'statistics'
p860
(lp861
sS'market_items'
p862
g43
((ltRp863
sS'support'
p864
NsS'objective'
p865
(S'Defeat Boss'
p866
S'Defeat Boss'
p867
S'Lord dies,OR,Party size falls below 5. Currently {gameStateObj.get_total_party_members()}'
p868
tp869
sS'turncount'
p870
I3
sS'map'
p871
(dp872
S'HP'
p873
(lp874
sS'command_list'
p875
(lp876
ssS'state_list'
p877
((lp878
S'free'
p879
aS'status'
p880
aS'phase_change'
p881
a(lp882
S'pop'
p883
atp884
sS'prefabs'
p885
(dp886
sS'level_constants'
p887
ccollections
Counter
p888
((dtRp889
sS'phase_info'
p890
(I0
I1
tp891
sS'factions'
p892
(dp893
S'Empire'
p894
(S'Empire'
S'Empire'
S''
tp895
sS'Resistance'
p896
(g522
g520
S''
tp897
ssS'triggers'
p898
(dp899
sS'mode'
p900
(dp901
S'autolevel_enemies'
p902
S'0'
sS'death'
p903
I1
sg70
S'Hard'
p904
sS'color'
p905
S'Green'
p906
sS'player_bases'
p907
(lp908
I0
aI0
aI0
aI0
aI0
aI0
aI0
aI0
aI0
aI0
asS'growths'
p909
I0
sS'rng'
p910
S'true_hit'
p911
sS'autolevel_players'
p912
S'0'
sS'enemy_growths'
p913
(lp914
I0
aI0
aI0
aI0
aI0
aI0
aI0
aI0
aI0
aI0
asS'truelevel_enemies'
p915
S'0'
sS'player_growths'
p916
(lp917
I0
aI0
aI0
aI0
aI0
aI0
aI0
aI0
aI0
aI0
asS'enemy_bases'
p918
(lp919
I0
aI0
aI0
aI0
aI0
aI0
aI0
aI0
aI0
aI0
asS'id'
p920
S'1'
sS'tutorial'
p921
S'1'
ssS'game_constants'
p922
g888
((dp923
S'money'
p924
I0
sg73
S'DEBUG'
p925
stRp926
s.