(dp1
S'kind'
p2
S'TurnChange 2'
p3
sS'mode_id'
p4
S'1'
sS'name'
p5
S'Fight the Resistance!'
p6
sS'realtime'
p7
F1543548000.221
sS'version'
p8
S'0.8.3'
p9
sS'playtime'
p10
I240816
sS'save_slot'
p11
S'DEBUG'
p12
s.