(dp1
S'talk_options'
p2
(lp3
sS'allunits'
p4
(lp5
(dp6
S'ai'
p7
S'None'
p8
sS'growths'
p9
(lp10
I80
aI35
aI0
aI55
aI55
aI30
aI20
aI20
aI0
aI0
asS'dead'
p11
I00
sS'items'
p12
(lp13
(dp14
S'c_uses'
p15
NsS'locked'
p16
I00
sS'droppable'
p17
I00
sS'uses'
p18
I41
sS'event_combat'
p19
I00
sS'owner'
p20
S'Jaeger'
p21
sS'id'
p22
S'Iron Sword'
p23
sasS'growth_points'
p24
(lp25
I50
aI50
aI50
aI50
aI50
aI50
aI50
aI50
aI50
aI50
asS'currenthp'
p26
I3
sS'stats'
p27
(lp28
(I16
I0
tp29
a(I8
I0
tp30
a(I2
I0
tp31
a(I13
I0
tp32
a(I14
I0
tp33
a(I7
I0
tp34
a(I5
I0
tp35
a(I2
I0
tp36
a(I8
I0
tp37
a(I5
I0
tp38
asS'event_id'
p39
S'0'
sS'desc'
p40
S'A strong-hearted renegade who often acts before he thinks.'
p41
sS'tags'
p42
c__builtin__
set
p43
((lp44
S'Lord'
p45
atRp46
sS'status_effects'
p47
(lp48
(dp49
S'count'
p50
NsS'time_left'
p51
NsS'upkeep_sc_count'
p52
NsS'children'
p53
(lp54
sS'parent_id'
p55
NsS'charge'
p56
NsS'rhythm_sc_count'
p57
Nsg22
S'Riposte'
p58
sa(dp59
g50
Nsg51
I1
sg52
Nsg53
(lp60
sg55
S'T Rob'
p61
sg56
Nsg57
Nsg22
S'Fortune'
p62
sasS'records'
p63
(dp64
S'damage'
p65
I31
sS'kills'
p66
I1
sS'healing'
p67
I0
ssS'finished'
p68
I00
sS'faction_icon'
p69
S'Neutral'
p70
sS'u_id'
p71
g21
sS'wexp'
p72
(lp73
I11
aI0
aI0
aI0
aI0
aI0
aI0
asS'name'
p74
S'Jaeger'
p75
sS'movement_group'
p76
I0
sS'level'
p77
I1
sS'gender'
p78
I2
sS'TRV'
p79
I0
sS'klass'
p80
S'Myrmidon'
p81
sS'exp'
p82
I41
sS'team'
p83
S'player'
p84
sS'position'
p85
(I9
I13
tp86
sa(dp87
g7
S'None'
p88
sg9
(lp89
I50
aI15
aI60
aI25
aI40
aI60
aI15
aI55
aI0
aI0
asg11
I00
sg12
(lp90
(dp91
g15
Nsg16
I00
sg17
I00
sg18
I28
sg19
I00
sg20
S'NANC'
p92
sg22
S'Heal'
p93
sa(dp94
g15
Nsg16
I00
sg17
I00
sg18
I28
sg19
I00
sg20
g92
sg22
S'Glimmer'
p95
sasg24
(lp96
I50
aI50
aI50
aI50
aI50
aI50
aI50
aI50
aI50
aI50
asg26
I11
sg27
(lp97
(I18
I0
tp98
a(I0
I0
tp99
a(I2
I0
tp100
a(I4
I0
tp101
a(I8
I0
tp102
a(I6
I0
tp103
a(I2
I0
tp104
a(I6
I0
tp105
a(I4
I0
tp106
a(I5
I0
tp107
asg39
S'0'
sg40
S'A shy but kind-hearted young woman. Has an affinity with the spiritual.'
p108
sg42
g43
((ltRp109
sg47
(lp110
(dp111
g50
Nsg51
Nsg52
Nsg53
(lp112
sg55
Nsg56
Nsg57
Nsg22
S'Healtouch'
p113
sasg63
(dp114
g65
I4
sg66
I0
sg67
I19
ssg68
I00
sg69
g70
sg71
g92
sg72
(lp115
I0
aI0
aI0
aI0
aI5
aI0
aI0
asg74
S'NANC'
p116
sg76
I5
sg77
I1
sg78
I7
sg79
I0
sg80
S'Cleric'
p117
sg82
I24
sg83
S'player'
p118
sg85
(I10
I19
tp119
sa(dp120
g7
S'None'
p121
sg9
(lp122
I80
aI65
aI5
aI40
aI20
aI40
aI25
aI15
aI0
aI0
asg11
I00
sg12
(lp123
(dp124
g15
Nsg16
I00
sg17
I00
sg18
I40
sg19
I00
sg20
S'Kenboslice'
p125
sg22
S'Iron Axe'
p126
sa(dp127
g15
Nsg16
I00
sg17
I00
sg18
I3
sg19
I00
sg20
g125
sg22
S'Vulnerary'
p128
sasg24
(lp129
I50
aI50
aI50
aI50
aI50
aI50
aI50
aI50
aI50
aI50
asg26
I20
sg27
(lp130
(I21
I0
tp131
a(I8
I0
tp132
a(I0
I0
tp133
a(I7
I0
tp134
a(I7
I0
tp135
a(I3
I0
tp136
a(I5
I0
tp137
a(I1
I0
tp138
a(I11
I0
tp139
a(I5
I0
tp140
asg39
S'0'
sg40
S'A jovial former sailor. Always ready for a new adventure.'
p141
sg42
g43
((lp142
S'ActiveSkillCharged'
p143
atRp144
sg47
(lp145
(dp146
g50
Nsg51
Nsg52
Nsg53
(lp147
sg55
Nsg56
I15
sg57
Nsg22
S'Cleave'
p148
sasg63
(dp149
g65
I36
sg66
I2
sg67
I0
ssg68
I00
sg69
g70
sg71
g125
sg72
(lp150
I0
aI0
aI20
aI0
aI0
aI0
aI0
asg74
S'Kenboslice'
p151
sg76
I4
sg77
I1
sg78
I0
sg79
I0
sg80
S'Fighter'
p152
sg82
I71
sg83
S'player'
p153
sg85
(I8
I14
tp154
sa(dp155
g7
S'None'
p156
sg9
(lp157
I55
aI45
aI25
aI50
aI60
aI50
aI15
aI35
aI0
aI0
asg11
I00
sg12
(lp158
(dp159
g15
Nsg16
I00
sg17
I00
sg18
I43
sg19
I00
sg20
S'Olive'
p160
sg22
S'Willow Bow'
p161
sa(dp162
g15
Nsg16
I00
sg17
I00
sg18
I3
sg19
I00
sg20
g160
sg22
S'Vulnerary'
p163
sasg24
(lp164
I50
aI50
aI50
aI50
aI50
aI50
aI50
aI50
aI50
aI50
asg26
I11
sg27
(lp165
(I17
I0
tp166
a(I4
I0
tp167
a(I2
I0
tp168
a(I5
I0
tp169
a(I6
I0
tp170
a(I4
I0
tp171
a(I3
I0
tp172
a(I2
I0
tp173
a(I7
I0
tp174
a(I5
I0
tp175
asg39
S'0'
sg40
S'A quiet archer most at home in the wilderness.'
p176
sg42
g43
((ltRp177
sg47
(lp178
(dp179
g50
Nsg51
Nsg52
Nsg53
(lp180
sg55
Nsg56
Nsg57
Nsg22
S'Prescience'
p181
sasg63
(dp182
g65
I9
sg66
I0
sg67
I0
ssg68
I00
sg69
g70
sg71
g160
sg72
(lp183
I0
aI0
aI0
aI18
aI0
aI0
aI0
asg74
S'Olive'
p184
sg76
I0
sg77
I1
sg78
I6
sg79
I0
sg80
S'Archer'
p185
sg82
I21
sg83
S'player'
p186
sg85
(I16
I12
tp187
sa(dp188
g7
S'None'
p189
sg9
(lp190
I55
aI45
aI30
aI50
aI60
aI50
aI15
aI35
aI0
aI0
asg11
I00
sg12
(lp191
(dp192
g15
Nsg16
I00
sg17
I00
sg18
I26
sg19
I00
sg20
S'Mama Coco'
p193
sg22
S'Fire'
p194
sa(dp195
g15
Nsg16
I00
sg17
I00
sg18
I3
sg19
I00
sg20
g193
sg22
S'Vulnerary'
p196
sasg24
(lp197
I50
aI50
aI50
aI50
aI50
aI50
aI50
aI50
aI50
aI50
asg26
I11
sg27
(lp198
(I17
I0
tp199
a(I1
I0
tp200
a(I6
I0
tp201
a(I6
I0
tp202
a(I7
I0
tp203
a(I8
I0
tp204
a(I3
I0
tp205
a(I5
I2
tp206
a(I5
I0
tp207
a(I5
I0
tp208
asg39
S'0'
sg40
S'A forthright but elegant and refined sorceress.'
p209
sg42
g43
((ltRp210
sg47
(lp211
(dp212
g50
Nsg51
Nsg52
Nsg53
(lp213
sg55
Nsg56
Nsg57
Nsg22
S'Resistance +2'
p214
sa(dp215
g50
Nsg51
Nsg52
Nsg53
(lp216
sg55
Nsg56
Nsg57
Nsg22
S'Focus'
p217
sasg63
(dp218
g65
I23
sg66
I2
sg67
I0
ssg68
I00
sg69
g70
sg71
g193
sg72
(lp219
I0
aI0
aI0
aI0
aI0
aI10
aI0
asg74
S'Mama Coco'
p220
sg76
I5
sg77
I1
sg78
I5
sg79
I0
sg80
S'Mage'
p221
sg82
I71
sg83
S'player'
p222
sg85
(I21
I16
tp223
sa(dp224
g7
S'None'
p225
sg9
(lp226
I80
aI40
aI5
aI40
aI50
aI40
aI25
aI20
aI0
aI0
asg11
I00
sg12
(lp227
(dp228
g15
Nsg16
I00
sg17
I00
sg18
I42
sg19
I00
sg20
S'Sergio'
p229
sg22
S'Iron Lance'
p230
sa(dp231
g15
Nsg16
I00
sg17
I00
sg18
I46
sg19
I00
sg20
g229
sg22
S'Iron Sword'
p232
sasg24
(lp233
I50
aI50
aI50
aI50
aI50
aI50
aI50
aI50
aI50
aI50
asg26
I15
sg27
(lp234
(I20
I0
tp235
a(I7
I0
tp236
a(I1
I0
tp237
a(I5
I0
tp238
a(I7
I0
tp239
a(I2
I0
tp240
a(I6
I0
tp241
a(I1
I0
tp242
a(I9
I0
tp243
a(I7
I0
tp244
asg39
S'0'
sg40
S"A disgraced Imperial knight now in Althea's service."
p245
sg42
g43
((lp246
S'Mounted'
p247
atRp248
sg47
(lp249
(dp250
g50
Nsg51
Nsg52
Nsg53
(lp251
sg55
Nsg56
Nsg57
Nsg22
S'Canto'
p252
sasg63
(dp253
g65
I29
sg66
I1
sg67
I0
ssg68
I00
sg69
g70
sg71
g229
sg72
(lp254
I11
aI19
aI0
aI0
aI0
aI0
aI0
asg74
S'Sergio'
p255
sg76
I2
sg77
I1
sg78
I0
sg79
I0
sg80
S'Cavalier'
p256
sg82
I50
sg83
S'player'
p257
sg85
(I7
I15
tp258
sa(dp259
g7
S'None'
p260
sg9
(lp261
I75
aI40
aI20
aI40
aI65
aI45
aI25
aI20
aI0
aI0
asg11
I00
sg12
(lp262
(dp263
g15
Nsg16
I00
sg17
I00
sg18
I44
sg19
I00
sg20
S'beautifulcody'
p264
sg22
S'Iron Sword'
p265
sa(dp266
g15
Nsg16
I00
sg17
I00
sg18
I3
sg19
I00
sg20
g264
sg22
S'Vulnerary'
p267
sasg24
(lp268
I50
aI50
aI50
aI50
aI50
aI50
aI50
aI50
aI50
aI50
asg26
I12
sg27
(lp269
(I18
I0
tp270
a(I4
I0
tp271
a(I2
I0
tp272
a(I4
I0
tp273
a(I10
I0
tp274
a(I8
I0
tp275
a(I3
I0
tp276
a(I1
I0
tp277
a(I6
I0
tp278
a(I6
I0
tp279
asg39
S'0'
sg40
S'An energetic thief with a kleptomanic streak.'
p280
sg42
g43
((ltRp281
sg47
(lp282
(dp283
g50
Nsg51
Nsg52
Nsg53
(lp284
sg55
Nsg56
Nsg57
Nsg22
S'Locktouch'
p285
sasg63
(dp286
g65
I9
sg66
I1
sg67
I0
ssg68
I00
sg69
g70
sg71
g264
sg72
(lp287
I18
aI0
aI0
aI0
aI0
aI0
aI0
asg74
S'beautifulcody'
p288
sg76
I0
sg77
I1
sg78
I5
sg79
I0
sg80
S'Thief'
p289
sg82
I40
sg83
S'player'
p290
sg85
(I7
I17
tp291
sa(dp292
g7
S'None'
p293
sg9
(lp294
I90
aI45
aI15
aI35
aI30
aI30
aI55
aI20
aI0
aI0
asg11
I00
sg12
(lp295
(dp296
g15
Nsg16
I00
sg17
I00
sg18
I43
sg19
I00
sg20
S'Sir Carter'
p297
sg22
S'Iron Lance'
p298
sa(dp299
g15
Nsg16
I00
sg17
I00
sg18
I3
sg19
I00
sg20
g297
sg22
S'Vulnerary'
p300
sasg24
(lp301
I50
aI50
aI50
aI50
aI50
aI50
aI50
aI50
aI50
aI50
asg26
I25
sg27
(lp302
(I25
I0
tp303
a(I9
I0
tp304
a(I0
I0
tp305
a(I6
I0
tp306
a(I3
I0
tp307
a(I3
I0
tp308
a(I9
I0
tp309
a(I3
I0
tp310
a(I13
I0
tp311
a(I4
I0
tp312
asg39
S'0'
sg40
S'An avid scholar. Interested in esoteric philosophy.'
p313
sg42
g43
((ltRp314
sg47
(lp315
(dp316
g50
Nsg51
Nsg52
Nsg53
(lp317
I113
aI112
asg55
Nsg56
Nsg57
Nsg22
S'Provoke'
p318
sasg63
(dp319
g65
I22
sg66
I0
sg67
I0
ssg68
I00
sg69
g70
sg71
g297
sg72
(lp320
I0
aI18
aI0
aI0
aI0
aI0
aI0
asg74
S'Sir Carter'
p321
sg76
I1
sg77
I1
sg78
I0
sg79
I0
sg80
S'Knight'
p322
sg82
I20
sg83
S'player'
p323
sg85
(I17
I14
tp324
sa(dp325
g7
S'None'
p326
sg9
(lp327
I80
aI45
aI15
aI35
aI25
aI25
aI45
aI30
aI0
aI0
asg11
I01
sg12
(lp328
(dp329
g15
Nsg16
I00
sg17
I00
sg18
I44
sg19
I00
sg20
S'Not Tracer'
p330
sg22
S'Iron Lance'
p331
sa(dp332
g15
Nsg16
I00
sg17
I00
sg18
I20
sg19
I00
sg20
g330
sg22
S'Javelin'
p333
sasg24
(lp334
I50
aI50
aI50
aI50
aI50
aI50
aI50
aI50
aI50
aI50
asg26
I22
sg27
(lp335
(I22
I0
tp336
a(I4
I0
tp337
a(I0
I0
tp338
a(I1
I0
tp339
a(I1
I0
tp340
a(I1
I0
tp341
a(I3
I0
tp342
a(I1
I0
tp343
a(I6
I0
tp344
a(I5
I0
tp345
asg39
S'0'
sg40
S'A moody, sarcastic soldier.'
p346
sg42
g43
((ltRp347
sg47
(lp348
(dp349
g50
Nsg51
Nsg52
Nsg53
(lp350
sg55
Nsg56
Nsg57
Nsg22
S'Synergy'
p351
sasg63
(dp352
g65
I8
sg66
I0
sg67
I0
ssg68
I00
sg69
g70
sg71
g330
sg72
(lp353
I0
aI22
aI0
aI0
aI0
aI0
aI0
asg74
S'Not Tracer'
p354
sg76
I4
sg77
I1
sg78
I5
sg79
I0
sg80
S'Soldier'
p355
sg82
I10
sg83
S'player'
p356
sg85
Nsa(dp357
g7
S'None'
p358
sg9
(lp359
I65
aI15
aI35
aI45
aI55
aI55
aI40
aI65
aI0
aI0
asg11
I00
sg12
(lp360
(dp361
g15
Nsg16
I00
sg17
I00
sg18
I9
sg19
I00
sg20
g61
sg22
S'Fortune'
p362
sa(dp363
g15
Nsg16
I00
sg17
I00
sg18
I15
sg19
I00
sg20
g61
sg22
S'Mend'
p364
sa(dp365
g15
Nsg16
I00
sg17
I00
sg18
I16
sg19
I00
sg20
g61
sg22
S'Shine'
p366
sasg24
(lp367
I50
aI50
aI50
aI50
aI50
aI50
aI50
aI50
aI50
aI50
asg26
I13
sg27
(lp368
(I18
I0
tp369
a(I3
I0
tp370
a(I7
I0
tp371
a(I8
I0
tp372
a(I9
I0
tp373
a(I7
I0
tp374
a(I3
I0
tp375
a(I7
I0
tp376
a(I4
I0
tp377
a(I5
I0
tp378
asg39
S'0'
sg40
S"The resistance's leader. Ambitious and inquisitive."
p379
sg42
g43
((ltRp380
sg47
(lp381
(dp382
g50
Nsg51
Nsg52
Nsg53
(lp383
sg55
Nsg56
Nsg57
Nsg22
S'Inspiration'
p384
sasg63
(dp385
g65
I48
sg66
I2
sg67
I0
ssg68
I00
sg69
g70
sg71
g61
sg72
(lp386
I0
aI0
aI0
aI0
aI36
aI0
aI0
asg74
S'T Rob'
p387
sg76
I5
sg77
I1
sg78
I0
sg79
I0
sg80
S'Tactician'
p388
sg82
I95
sg83
S'player'
p389
sg85
(I11
I15
tp390
sa(dp391
g7
S'None'
p392
sg9
(lp393
I90
aI45
aI5
aI40
aI30
aI30
aI35
aI25
aI0
aI0
asg11
I00
sg12
(lp394
(dp395
g15
Nsg16
I00
sg17
I00
sg18
I17
sg19
I00
sg20
S'Dornstar'
p396
sg22
S'Rusted Sword'
p397
sa(dp398
g15
Nsg16
I00
sg17
I00
sg18
I3
sg19
I00
sg20
g396
sg22
S'Vulnerary'
p399
sasg24
(lp400
I50
aI50
aI50
aI50
aI50
aI50
aI50
aI50
aI50
aI50
asg26
I22
sg27
(lp401
(I20
I5
tp402
a(I9
I0
tp403
a(I0
I0
tp404
a(I11
I0
tp405
a(I9
I0
tp406
a(I4
I0
tp407
a(I5
I0
tp408
a(I2
I0
tp409
a(I9
I0
tp410
a(I5
I0
tp411
asg39
S'0'
sg40
S'A troubled wandererer with a mysterious past.'
p412
sg42
g43
((ltRp413
sg47
(lp414
(dp415
g50
Nsg51
Nsg52
Nsg53
(lp416
sg55
Nsg56
Nsg57
Nsg22
S'Initiative'
p417
sa(dp418
g50
Nsg51
Nsg52
Nsg53
(lp419
sg55
Nsg56
Nsg57
Nsg22
S'fMaximum HP +5'
p420
sasg63
(dp421
g65
I11
sg66
I1
sg67
I0
ssg68
I00
sg69
g70
sg71
g396
sg72
(lp422
I44
aI0
aI0
aI0
aI0
aI0
aI0
asg74
S'Dornstar'
p423
sg76
I4
sg77
I1
sg78
I0
sg79
I0
sg80
S'Mercenary'
p424
sg82
I41
sg83
S'player'
p425
sg85
(I22
I12
tp426
sa(dp427
g7
S'None'
p428
sg9
(lp429
I70
aI5
aI50
aI40
aI35
aI20
aI10
aI45
aI0
aI0
asg11
I00
sg12
(lp430
(dp431
g15
Nsg16
I00
sg17
I00
sg18
I26
sg19
I00
sg20
S'Leech'
p432
sg22
S'Flux'
p433
sa(dp434
g15
Nsg16
I00
sg17
I00
sg18
I10
sg19
I00
sg20
g432
sg22
S'Scathe'
p435
sa(dp436
g15
Nsg16
I00
sg17
I00
sg18
I3
sg19
I00
sg20
g432
sg22
S'Spiritbane'
p437
sasg24
(lp438
I50
aI50
aI50
aI50
aI50
aI50
aI50
aI50
aI50
aI50
asg26
I22
sg27
(lp439
(I22
I0
tp440
a(I1
I0
tp441
a(I10
I0
tp442
a(I8
I0
tp443
a(I5
I2
tp444
a(I0
I0
tp445
a(I2
I0
tp446
a(I7
I0
tp447
a(I7
I0
tp448
a(I4
I0
tp449
asg39
S'0'
sg40
S'A scheming diplomat from the Confederacy.'
p450
sg42
g43
((ltRp451
sg47
(lp452
(dp453
g50
Nsg51
Nsg52
Nsg53
(lp454
sg55
Nsg56
Nsg57
Nsg22
S'Hex'
p455
sa(dp456
g50
Nsg51
Nsg52
Nsg53
(lp457
sg55
Nsg56
Nsg57
Nsg22
S'fSpeed +2'
p458
sasg63
(dp459
g65
I35
sg66
I3
sg67
I0
ssg68
I00
sg69
g70
sg71
g432
sg72
(lp460
I0
aI0
aI0
aI0
aI0
aI0
aI39
asg74
S'Leech'
p461
sg76
I5
sg77
I1
sg78
I5
sg79
I0
sg80
S'Shaman'
p462
sg82
I90
sg83
S'player'
p463
sg85
(I17
I15
tp464
sa(dp465
g7
S'None'
p466
sg9
(lp467
I100
aI50
aI0
aI50
aI0
aI0
aI0
aI0
aI0
aI0
asg11
I00
sg12
(lp468
(dp469
g15
Nsg16
I00
sg17
I00
sg18
I20
sg19
I00
sg20
S'Sidney'
p470
sg22
S'Hand Axe'
p471
sa(dp472
g15
Nsg16
I00
sg17
I00
sg18
I45
sg19
I00
sg20
g470
sg22
S'Iron Axe'
p473
sasg24
(lp474
I50
aI50
aI50
aI50
aI50
aI50
aI50
aI50
aI50
aI50
asg26
I30
sg27
(lp475
(I30
I0
tp476
a(I12
I0
tp477
a(I0
I0
tp478
a(I5
I0
tp479
a(I5
I0
tp480
a(I0
I0
tp481
a(I5
I0
tp482
a(I2
I0
tp483
a(I11
I0
tp484
a(I5
I0
tp485
asg39
S'0'
sg40
S'A cruel Imperial lieutenant.'
p486
sg42
g43
((ltRp487
sg47
(lp488
(dp489
g50
Nsg51
Nsg52
Nsg53
(lp490
sg55
Nsg56
I0
sg57
Nsg22
g148
sasg63
(dp491
g65
I0
sg66
I0
sg67
I0
ssg68
I00
sg69
g70
sg71
g470
sg72
(lp492
I0
aI0
aI1
aI0
aI0
aI0
aI0
asg74
S'Sidney'
p493
sg76
I4
sg77
I4
sg78
I0
sg79
I0
sg80
S'Fighter'
p494
sg82
I0
sg83
S'enemy'
p495
sg85
(I12
I2
tp496
sa(dp497
g7
S'Attack'
p498
sg9
(lp499
I80
aI40
aI15
aI40
aI32
aI30
aI18
aI20
aI0
aI0
asg11
I00
sg12
(lp500
(dp501
g15
Nsg16
I00
sg17
I00
sg18
I44
sg19
I00
sg20
I102
sg22
S'Iron Sword'
p502
sasg24
(lp503
I50
aI50
aI50
aI50
aI50
aI50
aI50
aI50
aI50
aI50
asg26
I14
sg27
(lp504
(I18
I0
tp505
a(I4
I0
tp506
a(I1
I0
tp507
a(I8
I0
tp508
a(I8
I0
tp509
a(I0
I0
tp510
a(I4
I0
tp511
a(I0
I0
tp512
a(I9
I0
tp513
a(I5
I0
tp514
asg39
S'0'
sg40
S''
sg42
g43
((ltRp515
sg47
(lp516
(dp517
g50
Nsg51
Nsg52
Nsg53
(lp518
sg55
Nsg56
Nsg57
Nsg22
g417
sa(dp519
g50
Nsg51
I2
sg52
Nsg53
(lp520
sg55
g92
sg56
Nsg57
Nsg22
S'Dazzle'
p521
sasg63
(dp522
g65
I0
sg66
I0
sg67
I0
ssg68
I00
sg69
S'Resistance'
p523
sg71
I102
sg72
(lp524
I1
aI0
aI0
aI0
aI0
aI0
aI0
asg74
S'Resistance'
p525
sg76
I4
sg77
I1
sg78
I0
sg79
I0
sg80
S'Mercenary'
p526
sg82
I0
sg83
S'enemy'
p527
sg85
(I7
I18
tp528
sa(dp529
g7
S'Attack'
p530
sg9
(lp531
I80
aI40
aI15
aI40
aI32
aI30
aI18
aI20
aI0
aI0
asg11
I00
sg12
(lp532
(dp533
g15
Nsg16
I00
sg17
I00
sg18
I46
sg19
I00
sg20
I103
sg22
S'Iron Sword'
p534
sasg24
(lp535
I50
aI50
aI50
aI50
aI50
aI50
aI50
aI50
aI50
aI50
asg26
I18
sg27
(lp536
(I18
I0
tp537
a(I4
I0
tp538
a(I1
I0
tp539
a(I8
I0
tp540
a(I8
I0
tp541
a(I0
I0
tp542
a(I4
I0
tp543
a(I0
I0
tp544
a(I9
I0
tp545
a(I5
I0
tp546
asg39
S'0'
sg40
S''
sg42
g515
sg47
(lp547
(dp548
g50
Nsg51
Nsg52
Nsg53
(lp549
sg55
Nsg56
Nsg57
Nsg22
g417
sasg63
(dp550
g65
I0
sg66
I0
sg67
I0
ssg68
I00
sg69
g523
sg71
I103
sg72
(lp551
I1
aI0
aI0
aI0
aI0
aI0
aI0
asg74
g525
sg76
I4
sg77
I2
sg78
I0
sg79
I0
sg80
S'Mercenary'
p552
sg82
I0
sg83
S'enemy'
p553
sg85
Nsa(dp554
g7
S'SoftGuard'
p555
sg9
(lp556
I80
aI40
aI15
aI30
aI15
aI25
aI28
aI20
aI0
aI0
asg11
I00
sg12
(lp557
(dp558
g15
Nsg16
I00
sg17
I00
sg18
I45
sg19
I00
sg20
I108
sg22
S'Iron Lance'
p559
sa(dp560
g15
Nsg16
I00
sg17
I01
sg18
I1
sg19
I00
sg20
I108
sg22
S'Skeleton Key'
p561
sasg24
(lp562
I50
aI50
aI50
aI50
aI50
aI50
aI50
aI50
aI50
aI50
asg26
I18
sg27
(lp563
(I18
I0
tp564
a(I6
I0
tp565
a(I1
I0
tp566
a(I2
I0
tp567
a(I0
I0
tp568
a(I0
I0
tp569
a(I10
I0
tp570
a(I1
I0
tp571
a(I13
I0
tp572
a(I4
I0
tp573
asg39
S'0'
sg40
S''
sg42
g43
((ltRp574
sg47
(lp575
(dp576
g50
Nsg51
Nsg52
Nsg53
(lp577
sg55
Nsg56
Nsg57
Nsg22
g318
sasg63
(dp578
g65
I0
sg66
I0
sg67
I0
ssg68
I00
sg69
g523
sg71
I108
sg72
(lp579
I0
aI1
aI0
aI0
aI0
aI0
aI0
asg74
g525
sg76
I1
sg77
I3
sg78
I0
sg79
I0
sg80
S'Knight'
p580
sg82
I0
sg83
S'enemy'
p581
sg85
(I12
I6
tp582
sa(dp583
g7
S'Attack'
p584
sg9
(lp585
I80
aI40
aI15
aI40
aI32
aI30
aI18
aI20
aI0
aI0
asg11
I00
sg12
(lp586
(dp587
g15
Nsg16
I00
sg17
I00
sg18
I45
sg19
I00
sg20
I109
sg22
S'Iron Lance'
p588
sasg24
(lp589
I50
aI50
aI50
aI50
aI50
aI50
aI50
aI50
aI50
aI50
asg26
I19
sg27
(lp590
(I19
I0
tp591
a(I4
I0
tp592
a(I1
I0
tp593
a(I9
I0
tp594
a(I8
I0
tp595
a(I0
I0
tp596
a(I4
I0
tp597
a(I0
I0
tp598
a(I9
I0
tp599
a(I5
I0
tp600
asg39
S'0'
sg40
S''
sg42
g43
((ltRp601
sg47
(lp602
(dp603
g50
Nsg51
Nsg52
Nsg53
(lp604
sg55
Nsg56
Nsg57
Nsg22
S'Fleet_of_Foot'
p605
sasg63
(dp606
g65
I0
sg66
I0
sg67
I0
ssg68
I00
sg69
g523
sg71
I109
sg72
(lp607
I0
aI1
aI0
aI0
aI0
aI0
aI0
asg74
g525
sg76
I0
sg77
I2
sg78
I0
sg79
I0
sg80
S'Skirmisher'
p608
sg82
I0
sg83
S'enemy'
p609
sg85
(I12
I7
tp610
sa(dp611
g7
S'Attack'
p612
sg9
(lp613
I85
aI55
aI15
aI35
aI30
aI15
aI15
aI15
aI0
aI0
asg11
I00
sg12
(lp614
(dp615
g15
Nsg16
I00
sg17
I00
sg18
I45
sg19
I00
sg20
I110
sg22
S'Iron Axe'
p616
sasg24
(lp617
I50
aI50
aI50
aI50
aI50
aI50
aI50
aI50
aI50
aI50
asg26
I21
sg27
(lp618
(I21
I0
tp619
a(I6
I0
tp620
a(I1
I0
tp621
a(I2
I0
tp622
a(I4
I0
tp623
a(I0
I0
tp624
a(I2
I0
tp625
a(I0
I0
tp626
a(I11
I0
tp627
a(I5
I0
tp628
asg39
S'0'
sg40
S''
sg42
g43
((ltRp629
sg47
(lp630
(dp631
g50
Nsg51
Nsg52
Nsg53
(lp632
sg55
Nsg56
I0
sg57
Nsg22
g148
sasg63
(dp633
g65
I0
sg66
I0
sg67
I0
ssg68
I00
sg69
g523
sg71
I110
sg72
(lp634
I0
aI0
aI1
aI0
aI0
aI0
aI0
asg74
g525
sg76
I4
sg77
I2
sg78
I0
sg79
I0
sg80
S'Fighter'
p635
sg82
I0
sg83
S'enemy'
p636
sg85
(I20
I7
tp637
sa(dp638
g7
S'Attack'
p639
sg9
(lp640
I80
aI40
aI15
aI40
aI32
aI30
aI18
aI20
aI0
aI0
asg11
I00
sg12
(lp641
(dp642
g15
Nsg16
I00
sg17
I00
sg18
I46
sg19
I00
sg20
I114
sg22
S'Iron Sword'
p643
sasg24
(lp644
I50
aI50
aI50
aI50
aI50
aI50
aI50
aI50
aI50
aI50
asg26
I19
sg27
(lp645
(I19
I0
tp646
a(I4
I0
tp647
a(I1
I0
tp648
a(I8
I0
tp649
a(I8
I0
tp650
a(I0
I0
tp651
a(I5
I0
tp652
a(I0
I0
tp653
a(I9
I0
tp654
a(I5
I0
tp655
asg39
S'0'
sg40
S''
sg42
g515
sg47
(lp656
(dp657
g50
Nsg51
Nsg52
Nsg53
(lp658
sg55
Nsg56
Nsg57
Nsg22
g417
sasg63
(dp659
g65
I0
sg66
I0
sg67
I0
ssg68
I00
sg69
g523
sg71
I114
sg72
(lp660
I1
aI0
aI0
aI0
aI0
aI0
aI0
asg74
g525
sg76
I4
sg77
I2
sg78
I0
sg79
I0
sg80
S'Mercenary'
p661
sg82
I0
sg83
S'enemy'
p662
sg85
Nsa(dp663
g7
S'Attack'
p664
sg9
(lp665
I80
aI40
aI15
aI40
aI32
aI30
aI18
aI20
aI0
aI0
asg11
I00
sg12
(lp666
(dp667
g15
Nsg16
I00
sg17
I00
sg18
I43
sg19
I00
sg20
I115
sg22
S'Iron Sword'
p668
sasg24
(lp669
I50
aI50
aI50
aI50
aI50
aI50
aI50
aI50
aI50
aI50
asg26
I1
sg27
(lp670
(I19
I0
tp671
a(I4
I0
tp672
a(I1
I0
tp673
a(I8
I0
tp674
a(I9
I0
tp675
a(I1
I0
tp676
a(I4
I0
tp677
a(I0
I0
tp678
a(I9
I0
tp679
a(I5
I0
tp680
asg39
S'0'
sg40
S''
sg42
g515
sg47
(lp681
(dp682
g50
Nsg51
Nsg52
Nsg53
(lp683
sg55
Nsg56
Nsg57
Nsg22
g417
sasg63
(dp684
g65
I0
sg66
I0
sg67
I0
ssg68
I00
sg69
g523
sg71
I115
sg72
(lp685
I1
aI0
aI0
aI0
aI0
aI0
aI0
asg74
g525
sg76
I4
sg77
I2
sg78
I0
sg79
I0
sg80
S'Mercenary'
p686
sg82
I0
sg83
S'enemy'
p687
sg85
(I9
I14
tp688
sa(dp689
g7
S'Attack'
p690
sg9
(lp691
I85
aI55
aI15
aI35
aI30
aI15
aI15
aI15
aI0
aI0
asg11
I00
sg12
(lp692
(dp693
g15
Nsg16
I00
sg17
I00
sg18
I45
sg19
I00
sg20
I118
sg22
S'Iron Axe'
p694
sasg24
(lp695
I50
aI50
aI50
aI50
aI50
aI50
aI50
aI50
aI50
aI50
asg26
I21
sg27
(lp696
(I21
I0
tp697
a(I6
I0
tp698
a(I0
I0
tp699
a(I3
I0
tp700
a(I4
I0
tp701
a(I0
I0
tp702
a(I2
I0
tp703
a(I0
I0
tp704
a(I11
I0
tp705
a(I5
I0
tp706
asg39
S'0'
sg40
S''
sg42
g629
sg47
(lp707
(dp708
g50
Nsg51
Nsg52
Nsg53
(lp709
sg55
Nsg56
I0
sg57
Nsg22
g148
sasg63
(dp710
g65
I0
sg66
I0
sg67
I0
ssg68
I00
sg69
g523
sg71
I118
sg72
(lp711
I0
aI0
aI1
aI0
aI0
aI0
aI0
asg74
g525
sg76
I4
sg77
I2
sg78
I0
sg79
I0
sg80
S'Fighter'
p712
sg82
I0
sg83
S'enemy'
p713
sg85
(I4
I7
tp714
sa(dp715
g7
S'Attack'
p716
sg9
(lp717
I70
aI35
aI10
aI40
aI40
aI30
aI15
aI20
aI0
aI0
asg11
I00
sg12
(lp718
(dp719
g15
Nsg16
I00
sg17
I00
sg18
I46
sg19
I00
sg20
I119
sg22
S'Iron Sword'
p720
sasg24
(lp721
I50
aI50
aI50
aI50
aI50
aI50
aI50
aI50
aI50
aI50
asg26
I17
sg27
(lp722
(I17
I0
tp723
a(I4
I0
tp724
a(I1
I0
tp725
a(I9
I0
tp726
a(I9
I0
tp727
a(I0
I0
tp728
a(I2
I0
tp729
a(I0
I0
tp730
a(I8
I0
tp731
a(I5
I0
tp732
asg39
S'0'
sg40
S''
sg42
g43
((ltRp733
sg47
(lp734
(dp735
g50
Nsg51
Nsg52
Nsg53
(lp736
sg55
Nsg56
Nsg57
Nsg22
g58
sasg63
(dp737
g65
I0
sg66
I0
sg67
I0
ssg68
I00
sg69
g523
sg71
I119
sg72
(lp738
I1
aI0
aI0
aI0
aI0
aI0
aI0
asg74
g525
sg76
I0
sg77
I2
sg78
I0
sg79
I0
sg80
S'Myrmidon'
p739
sg82
I0
sg83
S'enemy'
p740
sg85
(I2
I9
tp741
sasS'convoy'
p742
(lp743
sS'allreinforcements'
p744
(dp745
sS'base_conversations'
p746
ccollections
OrderedDict
p747
((ltRp748
sS'phase_music'
p749
(S'Fire Emblem IfFates + Awakening BGM - Conquest (CalmAblaze Mix Extended)'
p750
S'Battle (Enemy Phase) - Fire Emblem Heroes Music Extended'
p751
Ntp752
sS'playtime'
p753
I782055
sS'message'
p754
(lp755
sS'unlocked_lore'
p756
(lp757
sS'statistics'
p758
(lp759
sS'market_items'
p760
g43
((ltRp761
sS'support'
p762
NsS'objective'
p763
(S'Defeat Boss'
p764
S'Defeat Boss'
p765
S'Lord dies,OR,Party size falls below 5. Currently {gameStateObj.get_total_party_members()}'
p766
tp767
sS'turncount'
p768
I3
sS'map'
p769
(dp770
S'HP'
p771
(lp772
sS'command_list'
p773
(lp774
ssS'state_list'
p775
((lp776
g7
aS'status'
p777
aS'phase_change'
p778
a(lp779
S'pop'
p780
atp781
sS'prefabs'
p782
(dp783
sS'level_constants'
p784
ccollections
Counter
p785
((dtRp786
sS'phase_info'
p787
(I1
I0
tp788
sS'factions'
p789
(dp790
S'Empire'
p791
(S'Empire'
S'Empire'
S''
tp792
sS'Resistance'
p793
(g525
g523
S''
tp794
ssS'triggers'
p795
(dp796
sS'mode'
p797
(dp798
S'autolevel_enemies'
p799
S'0'
sS'death'
p800
I1
sg74
S'Hard'
p801
sS'color'
p802
S'Green'
p803
sS'player_bases'
p804
(lp805
I0
aI0
aI0
aI0
aI0
aI0
aI0
aI0
aI0
aI0
asS'growths'
p806
I0
sS'rng'
p807
S'true_hit'
p808
sS'autolevel_players'
p809
S'0'
sS'enemy_growths'
p810
(lp811
I0
aI0
aI0
aI0
aI0
aI0
aI0
aI0
aI0
aI0
asS'truelevel_enemies'
p812
S'0'
sS'player_growths'
p813
(lp814
I0
aI0
aI0
aI0
aI0
aI0
aI0
aI0
aI0
aI0
asS'enemy_bases'
p815
(lp816
I0
aI0
aI0
aI0
aI0
aI0
aI0
aI0
aI0
aI0
asS'id'
p817
S'1'
sS'tutorial'
p818
S'1'
ssS'game_constants'
p819
g785
((dp820
S'money'
p821
I0
sg77
S'DEBUG'
p822
stRp823
s.