(dp1
S'talk_options'
p2
(lp3
sS'allunits'
p4
(lp5
(dp6
S'ai'
p7
S'None'
p8
sS'growths'
p9
(lp10
I80
aI35
aI0
aI55
aI55
aI30
aI20
aI20
aI0
aI0
asS'dead'
p11
I00
sS'items'
p12
(lp13
(dp14
S'c_uses'
p15
NsS'locked'
p16
I00
sS'droppable'
p17
I00
sS'uses'
p18
I46
sS'event_combat'
p19
I00
sS'owner'
p20
S'Jaeger'
p21
sS'id'
p22
S'Iron Sword'
p23
sasS'growth_points'
p24
(lp25
I50
aI50
aI50
aI50
aI50
aI50
aI50
aI50
aI50
aI50
asS'currenthp'
p26
I16
sS'stats'
p27
(lp28
(I16
I0
tp29
a(I8
I0
tp30
a(I2
I0
tp31
a(I13
I0
tp32
a(I14
I0
tp33
a(I7
I0
tp34
a(I5
I0
tp35
a(I2
I0
tp36
a(I8
I0
tp37
a(I5
I0
tp38
asS'event_id'
p39
S'0'
sS'desc'
p40
S'A strong-hearted renegade who often acts before he thinks.'
p41
sS'tags'
p42
c__builtin__
set
p43
((lp44
S'Lord'
p45
atRp46
sS'status_effects'
p47
(lp48
(dp49
S'count'
p50
NsS'time_left'
p51
NsS'upkeep_sc_count'
p52
NsS'children'
p53
(lp54
sS'parent_id'
p55
NsS'charge'
p56
NsS'rhythm_sc_count'
p57
Nsg22
S'Riposte'
p58
sasS'records'
p59
(dp60
S'damage'
p61
I0
sS'kills'
p62
I0
sS'healing'
p63
I0
ssS'finished'
p64
I00
sS'faction_icon'
p65
S'Neutral'
p66
sS'u_id'
p67
g21
sS'wexp'
p68
(lp69
I8
aI0
aI0
aI0
aI0
aI0
aI0
asS'name'
p70
S'Jaeger'
p71
sS'movement_group'
p72
I0
sS'level'
p73
I1
sS'gender'
p74
I2
sS'TRV'
p75
I0
sS'klass'
p76
S'Myrmidon'
p77
sS'exp'
p78
I0
sS'team'
p79
S'player'
p80
sS'position'
p81
(I10
I17
tp82
sa(dp83
g7
S'None'
p84
sg9
(lp85
I50
aI15
aI60
aI25
aI40
aI60
aI15
aI55
aI0
aI0
asg11
I00
sg12
(lp86
(dp87
g15
Nsg16
I00
sg17
I00
sg18
I30
sg19
I00
sg20
S'NANC'
p88
sg22
S'Glimmer'
p89
sa(dp90
g15
Nsg16
I00
sg17
I00
sg18
I30
sg19
I00
sg20
g88
sg22
S'Heal'
p91
sasg24
(lp92
I50
aI50
aI50
aI50
aI50
aI50
aI50
aI50
aI50
aI50
asg26
I18
sg27
(lp93
(I18
I0
tp94
a(I0
I0
tp95
a(I2
I0
tp96
a(I4
I0
tp97
a(I8
I0
tp98
a(I6
I0
tp99
a(I2
I0
tp100
a(I6
I0
tp101
a(I4
I0
tp102
a(I5
I0
tp103
asg39
S'0'
sg40
S'A shy but kind-hearted young woman. Has an affinity with the spiritual.'
p104
sg42
g43
((ltRp105
sg47
(lp106
(dp107
g50
Nsg51
Nsg52
Nsg53
(lp108
sg55
Nsg56
Nsg57
Nsg22
S'Healtouch'
p109
sasg59
(dp110
g61
I0
sg62
I0
sg63
I0
ssg64
I00
sg65
g66
sg67
g88
sg68
(lp111
I0
aI0
aI0
aI0
aI1
aI0
aI0
asg70
S'NANC'
p112
sg72
I5
sg73
I1
sg74
I7
sg75
I0
sg76
S'Cleric'
p113
sg78
I0
sg79
S'player'
p114
sg81
(I10
I19
tp115
sa(dp116
g7
S'None'
p117
sg9
(lp118
I80
aI65
aI5
aI40
aI20
aI40
aI25
aI15
aI0
aI0
asg11
I00
sg12
(lp119
(dp120
g15
Nsg16
I00
sg17
I00
sg18
I43
sg19
I00
sg20
S'Kenboslice'
p121
sg22
S'Iron Axe'
p122
sa(dp123
g15
Nsg16
I00
sg17
I00
sg18
I3
sg19
I00
sg20
g121
sg22
S'Vulnerary'
p124
sasg24
(lp125
I50
aI50
aI50
aI50
aI50
aI50
aI50
aI50
aI50
aI50
asg26
I19
sg27
(lp126
(I21
I0
tp127
a(I8
I0
tp128
a(I0
I0
tp129
a(I7
I0
tp130
a(I7
I0
tp131
a(I3
I0
tp132
a(I5
I0
tp133
a(I1
I0
tp134
a(I11
I0
tp135
a(I5
I0
tp136
asg39
S'0'
sg40
S'A jovial former sailor. Always ready for a new adventure.'
p137
sg42
g43
((ltRp138
sg47
(lp139
(dp140
g50
Nsg51
Nsg52
Nsg53
(lp141
sg55
Nsg56
I7
sg57
Nsg22
S'Cleave'
p142
sasg59
(dp143
g61
I20
sg62
I1
sg63
I0
ssg64
I00
sg65
g66
sg67
g121
sg68
(lp144
I0
aI0
aI17
aI0
aI0
aI0
aI0
asg70
S'Kenboslice'
p145
sg72
I4
sg73
I1
sg74
I0
sg75
I0
sg76
S'Fighter'
p146
sg78
I30
sg79
S'player'
p147
sg81
(I9
I13
tp148
sa(dp149
g7
S'None'
p150
sg9
(lp151
I55
aI45
aI25
aI50
aI60
aI50
aI15
aI35
aI0
aI0
asg11
I00
sg12
(lp152
(dp153
g15
Nsg16
I00
sg17
I00
sg18
I44
sg19
I00
sg20
S'Olive'
p154
sg22
S'Willow Bow'
p155
sa(dp156
g15
Nsg16
I00
sg17
I00
sg18
I3
sg19
I00
sg20
g154
sg22
S'Vulnerary'
p157
sasg24
(lp158
I50
aI50
aI50
aI50
aI50
aI50
aI50
aI50
aI50
aI50
asg26
I17
sg27
(lp159
(I17
I0
tp160
a(I4
I0
tp161
a(I2
I0
tp162
a(I5
I0
tp163
a(I6
I0
tp164
a(I4
I0
tp165
a(I3
I0
tp166
a(I2
I0
tp167
a(I7
I0
tp168
a(I5
I0
tp169
asg39
S'0'
sg40
S'A quiet archer most at home in the wilderness.'
p170
sg42
g43
((ltRp171
sg47
(lp172
(dp173
g50
Nsg51
Nsg52
Nsg53
(lp174
sg55
Nsg56
Nsg57
Nsg22
S'Prescience'
p175
sasg59
(dp176
g61
I5
sg62
I0
sg63
I0
ssg64
I00
sg65
g66
sg67
g154
sg68
(lp177
I0
aI0
aI0
aI17
aI0
aI0
aI0
asg70
S'Olive'
p178
sg72
I0
sg73
I1
sg74
I6
sg75
I0
sg76
S'Archer'
p179
sg78
I10
sg79
S'player'
p180
sg81
(I18
I16
tp181
sa(dp182
g7
S'None'
p183
sg9
(lp184
I55
aI45
aI30
aI50
aI60
aI50
aI15
aI35
aI0
aI0
asg11
I00
sg12
(lp185
(dp186
g15
Nsg16
I00
sg17
I00
sg18
I28
sg19
I00
sg20
S'Mama Coco'
p187
sg22
S'Fire'
p188
sa(dp189
g15
Nsg16
I00
sg17
I00
sg18
I3
sg19
I00
sg20
g187
sg22
S'Vulnerary'
p190
sasg24
(lp191
I50
aI50
aI50
aI50
aI50
aI50
aI50
aI50
aI50
aI50
asg26
I17
sg27
(lp192
(I17
I0
tp193
a(I1
I0
tp194
a(I6
I0
tp195
a(I6
I0
tp196
a(I7
I0
tp197
a(I8
I0
tp198
a(I3
I0
tp199
a(I5
I2
tp200
a(I5
I0
tp201
a(I5
I0
tp202
asg39
S'0'
sg40
S'A forthright but elegant and refined sorceress.'
p203
sg42
g43
((ltRp204
sg47
(lp205
(dp206
g50
Nsg51
Nsg52
Nsg53
(lp207
sg55
Nsg56
Nsg57
Nsg22
S'Resistance +2'
p208
sa(dp209
g50
Nsg51
Nsg52
Nsg53
(lp210
sg55
Nsg56
Nsg57
Nsg22
S'Focus'
p211
sasg59
(dp212
g61
I20
sg62
I0
sg63
I0
ssg64
I00
sg65
g66
sg67
g187
sg68
(lp213
I0
aI0
aI0
aI0
aI0
aI7
aI0
asg70
S'Mama Coco'
p214
sg72
I5
sg73
I1
sg74
I5
sg75
I0
sg76
S'Mage'
p215
sg78
I10
sg79
S'player'
p216
sg81
(I16
I15
tp217
sa(dp218
g7
S'None'
p219
sg9
(lp220
I80
aI40
aI5
aI40
aI50
aI40
aI25
aI20
aI0
aI0
asg11
I00
sg12
(lp221
(dp222
g15
Nsg16
I00
sg17
I00
sg18
I45
sg19
I00
sg20
S'Sergio'
p223
sg22
S'Iron Lance'
p224
sa(dp225
g15
Nsg16
I00
sg17
I00
sg18
I46
sg19
I00
sg20
g223
sg22
S'Iron Sword'
p226
sasg24
(lp227
I50
aI50
aI50
aI50
aI50
aI50
aI50
aI50
aI50
aI50
asg26
I20
sg27
(lp228
(I20
I0
tp229
a(I7
I0
tp230
a(I1
I0
tp231
a(I5
I0
tp232
a(I7
I0
tp233
a(I2
I0
tp234
a(I6
I0
tp235
a(I1
I0
tp236
a(I9
I0
tp237
a(I7
I0
tp238
asg39
S'0'
sg40
S"A disgraced Imperial knight now in Althea's service."
p239
sg42
g43
((lp240
S'Mounted'
p241
atRp242
sg47
(lp243
(dp244
g50
Nsg51
Nsg52
Nsg53
(lp245
sg55
Nsg56
Nsg57
Nsg22
S'Canto'
p246
sasg59
(dp247
g61
I0
sg62
I0
sg63
I0
ssg64
I00
sg65
g66
sg67
g223
sg68
(lp248
I11
aI16
aI0
aI0
aI0
aI0
aI0
asg70
S'Sergio'
p249
sg72
I2
sg73
I1
sg74
I0
sg75
I0
sg76
S'Cavalier'
p250
sg78
I0
sg79
S'player'
p251
sg81
(I9
I16
tp252
sa(dp253
g7
S'None'
p254
sg9
(lp255
I75
aI40
aI20
aI40
aI65
aI45
aI25
aI20
aI0
aI0
asg11
I00
sg12
(lp256
(dp257
g15
Nsg16
I00
sg17
I00
sg18
I46
sg19
I00
sg20
S'beautifulcody'
p258
sg22
S'Iron Sword'
p259
sa(dp260
g15
Nsg16
I00
sg17
I00
sg18
I3
sg19
I00
sg20
g258
sg22
S'Vulnerary'
p261
sasg24
(lp262
I50
aI50
aI50
aI50
aI50
aI50
aI50
aI50
aI50
aI50
asg26
I18
sg27
(lp263
(I18
I0
tp264
a(I4
I0
tp265
a(I2
I0
tp266
a(I4
I0
tp267
a(I10
I0
tp268
a(I8
I0
tp269
a(I3
I0
tp270
a(I1
I0
tp271
a(I6
I0
tp272
a(I6
I0
tp273
asg39
S'0'
sg40
S'An energetic thief with a kleptomanic streak.'
p274
sg42
g43
((ltRp275
sg47
(lp276
(dp277
g50
Nsg51
Nsg52
Nsg53
(lp278
sg55
Nsg56
Nsg57
Nsg22
S'Locktouch'
p279
sasg59
(dp280
g61
I0
sg62
I0
sg63
I0
ssg64
I00
sg65
g66
sg67
g258
sg68
(lp281
I16
aI0
aI0
aI0
aI0
aI0
aI0
asg70
S'beautifulcody'
p282
sg72
I0
sg73
I1
sg74
I5
sg75
I0
sg76
S'Thief'
p283
sg78
I0
sg79
S'player'
p284
sg81
(I9
I19
tp285
sa(dp286
g7
S'None'
p287
sg9
(lp288
I90
aI45
aI15
aI35
aI30
aI30
aI55
aI20
aI0
aI0
asg11
I00
sg12
(lp289
(dp290
g15
Nsg16
I00
sg17
I00
sg18
I44
sg19
I00
sg20
S'Sir Carter'
p291
sg22
S'Iron Lance'
p292
sa(dp293
g15
Nsg16
I00
sg17
I00
sg18
I3
sg19
I00
sg20
g291
sg22
S'Vulnerary'
p294
sasg24
(lp295
I50
aI50
aI50
aI50
aI50
aI50
aI50
aI50
aI50
aI50
asg26
I25
sg27
(lp296
(I25
I0
tp297
a(I9
I0
tp298
a(I0
I0
tp299
a(I6
I0
tp300
a(I3
I0
tp301
a(I3
I0
tp302
a(I9
I0
tp303
a(I3
I0
tp304
a(I13
I0
tp305
a(I4
I0
tp306
asg39
S'0'
sg40
S'An avid scholar. Interested in esoteric philosophy.'
p307
sg42
g43
((ltRp308
sg47
(lp309
(dp310
g50
Nsg51
Nsg52
Nsg53
(lp311
I113
asg55
Nsg56
Nsg57
Nsg22
S'Provoke'
p312
sasg59
(dp313
g61
I11
sg62
I0
sg63
I0
ssg64
I00
sg65
g66
sg67
g291
sg68
(lp314
I0
aI17
aI0
aI0
aI0
aI0
aI0
asg70
S'Sir Carter'
p315
sg72
I1
sg73
I1
sg74
I0
sg75
I0
sg76
S'Knight'
p316
sg78
I10
sg79
S'player'
p317
sg81
(I19
I16
tp318
sa(dp319
g7
S'None'
p320
sg9
(lp321
I80
aI45
aI15
aI35
aI25
aI25
aI45
aI30
aI0
aI0
asg11
I00
sg12
(lp322
(dp323
g15
Nsg16
I00
sg17
I00
sg18
I45
sg19
I00
sg20
S'Not Tracer'
p324
sg22
S'Iron Lance'
p325
sa(dp326
g15
Nsg16
I00
sg17
I00
sg18
I20
sg19
I00
sg20
g324
sg22
S'Javelin'
p327
sasg24
(lp328
I50
aI50
aI50
aI50
aI50
aI50
aI50
aI50
aI50
aI50
asg26
I22
sg27
(lp329
(I22
I0
tp330
a(I4
I0
tp331
a(I0
I0
tp332
a(I1
I0
tp333
a(I1
I0
tp334
a(I1
I0
tp335
a(I3
I0
tp336
a(I1
I0
tp337
a(I6
I0
tp338
a(I5
I0
tp339
asg39
S'0'
sg40
S'A moody, sarcastic soldier.'
p340
sg42
g43
((ltRp341
sg47
(lp342
(dp343
g50
Nsg51
Nsg52
Nsg53
(lp344
sg55
Nsg56
Nsg57
Nsg22
S'Synergy'
p345
sasg59
(dp346
g61
I0
sg62
I0
sg63
I0
ssg64
I00
sg65
g66
sg67
g324
sg68
(lp347
I0
aI21
aI0
aI0
aI0
aI0
aI0
asg70
S'Not Tracer'
p348
sg72
I4
sg73
I1
sg74
I5
sg75
I0
sg76
S'Soldier'
p349
sg78
I0
sg79
S'player'
p350
sg81
(I7
I17
tp351
sa(dp352
g7
S'None'
p353
sg9
(lp354
I65
aI15
aI35
aI45
aI55
aI55
aI40
aI65
aI0
aI0
asg11
I00
sg12
(lp355
(dp356
g15
Nsg16
I00
sg17
I00
sg18
I19
sg19
I00
sg20
S'T Rob'
p357
sg22
S'Shine'
p358
sa(dp359
g15
Nsg16
I00
sg17
I00
sg18
I15
sg19
I00
sg20
g357
sg22
S'Mend'
p360
sa(dp361
g15
Nsg16
I00
sg17
I00
sg18
I10
sg19
I00
sg20
g357
sg22
S'Fortune'
p362
sasg24
(lp363
I50
aI50
aI50
aI50
aI50
aI50
aI50
aI50
aI50
aI50
asg26
I18
sg27
(lp364
(I18
I0
tp365
a(I3
I0
tp366
a(I7
I0
tp367
a(I8
I0
tp368
a(I9
I0
tp369
a(I7
I0
tp370
a(I3
I0
tp371
a(I7
I0
tp372
a(I4
I0
tp373
a(I5
I0
tp374
asg39
S'0'
sg40
S"The resistance's leader. Ambitious and inquisitive."
p375
sg42
g43
((ltRp376
sg47
(lp377
(dp378
g50
Nsg51
Nsg52
Nsg53
(lp379
sg55
Nsg56
Nsg57
Nsg22
S'Inspiration'
p380
sasg59
(dp381
g61
I1
sg62
I1
sg63
I0
ssg64
I00
sg65
g66
sg67
g357
sg68
(lp382
I0
aI0
aI0
aI0
aI32
aI0
aI0
asg70
S'T Rob'
p383
sg72
I5
sg73
I1
sg74
I0
sg75
I0
sg76
S'Tactician'
p384
sg78
I30
sg79
S'player'
p385
sg81
(I15
I14
tp386
sa(dp387
g7
S'None'
p388
sg9
(lp389
I90
aI45
aI5
aI40
aI30
aI30
aI35
aI25
aI0
aI0
asg11
I00
sg12
(lp390
(dp391
g15
Nsg16
I00
sg17
I00
sg18
I20
sg19
I00
sg20
S'Dornstar'
p392
sg22
S'Rusted Sword'
p393
sa(dp394
g15
Nsg16
I00
sg17
I00
sg18
I3
sg19
I00
sg20
g392
sg22
S'Vulnerary'
p395
sasg24
(lp396
I50
aI50
aI50
aI50
aI50
aI50
aI50
aI50
aI50
aI50
asg26
I25
sg27
(lp397
(I20
I5
tp398
a(I9
I0
tp399
a(I0
I0
tp400
a(I11
I0
tp401
a(I9
I0
tp402
a(I4
I0
tp403
a(I5
I0
tp404
a(I2
I0
tp405
a(I9
I0
tp406
a(I5
I0
tp407
asg39
S'0'
sg40
S'A troubled wandererer with a mysterious past.'
p408
sg42
g43
((ltRp409
sg47
(lp410
(dp411
g50
Nsg51
Nsg52
Nsg53
(lp412
sg55
Nsg56
Nsg57
Nsg22
S'Initiative'
p413
sa(dp414
g50
Nsg51
Nsg52
Nsg53
(lp415
sg55
Nsg56
Nsg57
Nsg22
S'fMaximum HP +5'
p416
sasg59
(dp417
g61
I0
sg62
I0
sg63
I0
ssg64
I00
sg65
g66
sg67
g392
sg68
(lp418
I41
aI0
aI0
aI0
aI0
aI0
aI0
asg70
S'Dornstar'
p419
sg72
I4
sg73
I1
sg74
I0
sg75
I0
sg76
S'Mercenary'
p420
sg78
I0
sg79
S'player'
p421
sg81
(I14
I15
tp422
sa(dp423
g7
S'None'
p424
sg9
(lp425
I70
aI5
aI50
aI40
aI35
aI20
aI10
aI45
aI0
aI0
asg11
I00
sg12
(lp426
(dp427
g15
Nsg16
I00
sg17
I00
sg18
I30
sg19
I00
sg20
S'Leech'
p428
sg22
S'Flux'
p429
sa(dp430
g15
Nsg16
I00
sg17
I00
sg18
I10
sg19
I00
sg20
g428
sg22
S'Scathe'
p431
sa(dp432
g15
Nsg16
I00
sg17
I00
sg18
I3
sg19
I00
sg20
g428
sg22
S'Spiritbane'
p433
sasg24
(lp434
I50
aI50
aI50
aI50
aI50
aI50
aI50
aI50
aI50
aI50
asg26
I22
sg27
(lp435
(I22
I0
tp436
a(I1
I0
tp437
a(I10
I0
tp438
a(I8
I0
tp439
a(I5
I2
tp440
a(I0
I0
tp441
a(I2
I0
tp442
a(I7
I0
tp443
a(I7
I0
tp444
a(I4
I0
tp445
asg39
S'0'
sg40
S'A scheming diplomat from the Confederacy.'
p446
sg42
g43
((ltRp447
sg47
(lp448
(dp449
g50
Nsg51
Nsg52
Nsg53
(lp450
sg55
Nsg56
Nsg57
Nsg22
S'Hex'
p451
sa(dp452
g50
Nsg51
Nsg52
Nsg53
(lp453
sg55
Nsg56
Nsg57
Nsg22
S'fSpeed +2'
p454
sasg59
(dp455
g61
I0
sg62
I0
sg63
I0
ssg64
I00
sg65
g66
sg67
g428
sg68
(lp456
I0
aI0
aI0
aI0
aI0
aI0
aI36
asg70
S'Leech'
p457
sg72
I5
sg73
I1
sg74
I5
sg75
I0
sg76
S'Shaman'
p458
sg78
I0
sg79
S'player'
p459
sg81
(I17
I17
tp460
sa(dp461
g7
S'None'
p462
sg9
(lp463
I100
aI50
aI0
aI50
aI0
aI0
aI0
aI0
aI0
aI0
asg11
I00
sg12
(lp464
(dp465
g15
Nsg16
I00
sg17
I00
sg18
I20
sg19
I00
sg20
S'Sidney'
p466
sg22
S'Hand Axe'
p467
sa(dp468
g15
Nsg16
I00
sg17
I00
sg18
I45
sg19
I00
sg20
g466
sg22
S'Iron Axe'
p469
sasg24
(lp470
I50
aI50
aI50
aI50
aI50
aI50
aI50
aI50
aI50
aI50
asg26
I30
sg27
(lp471
(I30
I0
tp472
a(I12
I0
tp473
a(I0
I0
tp474
a(I5
I0
tp475
a(I5
I0
tp476
a(I0
I0
tp477
a(I10
I0
tp478
a(I5
I0
tp479
a(I11
I0
tp480
a(I5
I0
tp481
asg39
S'0'
sg40
S'A cruel Imperial lieutenant.'
p482
sg42
g43
((ltRp483
sg47
(lp484
(dp485
g50
Nsg51
Nsg52
Nsg53
(lp486
sg55
Nsg56
I0
sg57
Nsg22
g142
sasg59
(dp487
g61
I0
sg62
I0
sg63
I0
ssg64
I00
sg65
g66
sg67
g466
sg68
(lp488
I0
aI0
aI1
aI0
aI0
aI0
aI0
asg70
S'Sidney'
p489
sg72
I4
sg73
I4
sg74
I0
sg75
I0
sg76
S'Fighter'
p490
sg78
I0
sg79
S'enemy'
p491
sg81
(I12
I2
tp492
sa(dp493
g7
S'Attack'
p494
sg9
(lp495
I70
aI35
aI10
aI40
aI40
aI30
aI15
aI20
aI0
aI0
asg11
I00
sg12
(lp496
(dp497
g15
Nsg16
I00
sg17
I00
sg18
I46
sg19
I00
sg20
I101
sg22
S'Iron Sword'
p498
sasg24
(lp499
I50
aI50
aI50
aI50
aI50
aI50
aI50
aI50
aI50
aI50
asg26
I16
sg27
(lp500
(I16
I0
tp501
a(I4
I0
tp502
a(I1
I0
tp503
a(I9
I0
tp504
a(I9
I0
tp505
a(I0
I0
tp506
a(I2
I0
tp507
a(I0
I0
tp508
a(I8
I0
tp509
a(I5
I0
tp510
asg39
S'0'
sg40
S''
sg42
g43
((ltRp511
sg47
(lp512
(dp513
g50
Nsg51
Nsg52
Nsg53
(lp514
sg55
Nsg56
Nsg57
Nsg22
g58
sasg59
(dp515
g61
I0
sg62
I0
sg63
I0
ssg64
I00
sg65
S'Resistance'
p516
sg67
I101
sg68
(lp517
I1
aI0
aI0
aI0
aI0
aI0
aI0
asg70
S'Resistance'
p518
sg72
I0
sg73
I1
sg74
I0
sg75
I0
sg76
S'Myrmidon'
p519
sg78
I0
sg79
S'enemy'
p520
sg81
(I15
I12
tp521
sa(dp522
g7
S'Attack'
p523
sg9
(lp524
I80
aI40
aI15
aI40
aI32
aI30
aI18
aI20
aI0
aI0
asg11
I00
sg12
(lp525
(dp526
g15
Nsg16
I00
sg17
I00
sg18
I46
sg19
I00
sg20
I102
sg22
S'Iron Sword'
p527
sasg24
(lp528
I50
aI50
aI50
aI50
aI50
aI50
aI50
aI50
aI50
aI50
asg26
I18
sg27
(lp529
(I18
I0
tp530
a(I4
I0
tp531
a(I1
I0
tp532
a(I8
I0
tp533
a(I8
I0
tp534
a(I0
I0
tp535
a(I4
I0
tp536
a(I0
I0
tp537
a(I9
I0
tp538
a(I5
I0
tp539
asg39
S'0'
sg40
S''
sg42
g43
((ltRp540
sg47
(lp541
(dp542
g50
Nsg51
Nsg52
Nsg53
(lp543
sg55
Nsg56
Nsg57
Nsg22
g413
sasg59
(dp544
g61
I0
sg62
I0
sg63
I0
ssg64
I00
sg65
g516
sg67
I102
sg68
(lp545
I1
aI0
aI0
aI0
aI0
aI0
aI0
asg70
g518
sg72
I4
sg73
I1
sg74
I0
sg75
I0
sg76
S'Mercenary'
p546
sg78
I0
sg79
S'enemy'
p547
sg81
(I4
I15
tp548
sa(dp549
g7
S'Attack'
p550
sg9
(lp551
I80
aI40
aI15
aI40
aI32
aI30
aI18
aI20
aI0
aI0
asg11
I00
sg12
(lp552
(dp553
g15
Nsg16
I00
sg17
I00
sg18
I46
sg19
I00
sg20
I103
sg22
S'Iron Sword'
p554
sasg24
(lp555
I50
aI50
aI50
aI50
aI50
aI50
aI50
aI50
aI50
aI50
asg26
I18
sg27
(lp556
(I18
I0
tp557
a(I4
I0
tp558
a(I1
I0
tp559
a(I8
I0
tp560
a(I8
I0
tp561
a(I0
I0
tp562
a(I4
I0
tp563
a(I0
I0
tp564
a(I9
I0
tp565
a(I5
I0
tp566
asg39
S'0'
sg40
S''
sg42
g540
sg47
(lp567
(dp568
g50
Nsg51
Nsg52
Nsg53
(lp569
sg55
Nsg56
Nsg57
Nsg22
g413
sasg59
(dp570
g61
I0
sg62
I0
sg63
I0
ssg64
I00
sg65
g516
sg67
I103
sg68
(lp571
I1
aI0
aI0
aI0
aI0
aI0
aI0
asg70
g518
sg72
I4
sg73
I2
sg74
I0
sg75
I0
sg76
S'Mercenary'
p572
sg78
I0
sg79
S'enemy'
p573
sg81
Nsa(dp574
g7
S'Attack'
p575
sg9
(lp576
I70
aI35
aI10
aI40
aI40
aI30
aI15
aI20
aI0
aI0
asg11
I00
sg12
(lp577
(dp578
g15
Nsg16
I00
sg17
I00
sg18
I46
sg19
I00
sg20
I104
sg22
S'Iron Sword'
p579
sasg24
(lp580
I50
aI50
aI50
aI50
aI50
aI50
aI50
aI50
aI50
aI50
asg26
I16
sg27
(lp581
(I16
I0
tp582
a(I4
I0
tp583
a(I2
I0
tp584
a(I10
I0
tp585
a(I9
I0
tp586
a(I0
I0
tp587
a(I2
I0
tp588
a(I0
I0
tp589
a(I8
I0
tp590
a(I5
I0
tp591
asg39
S'0'
sg40
S''
sg42
g511
sg47
(lp592
(dp593
g50
Nsg51
Nsg52
Nsg53
(lp594
sg55
Nsg56
Nsg57
Nsg22
g58
sasg59
(dp595
g61
I0
sg62
I0
sg63
I0
ssg64
I00
sg65
g516
sg67
I104
sg68
(lp596
I1
aI0
aI0
aI0
aI0
aI0
aI0
asg70
g518
sg72
I0
sg73
I2
sg74
I0
sg75
I0
sg76
S'Myrmidon'
p597
sg78
I0
sg79
S'enemy'
p598
sg81
(I8
I13
tp599
sa(dp600
g7
S'Attack'
p601
sg9
(lp602
I75
aI35
aI5
aI40
aI28
aI30
aI15
aI15
aI0
aI0
asg11
I00
sg12
(lp603
(dp604
g15
Nsg16
I00
sg17
I00
sg18
I46
sg19
I00
sg20
I107
sg22
S'Iron Sword'
p605
sa(dp606
g15
Nsg16
I00
sg17
I00
sg18
I45
sg19
I00
sg20
I107
sg22
S'Iron Lance'
p607
sasg24
(lp608
I50
aI50
aI50
aI50
aI50
aI50
aI50
aI50
aI50
aI50
asg26
I20
sg27
(lp609
(I20
I0
tp610
a(I5
I0
tp611
a(I0
I0
tp612
a(I2
I0
tp613
a(I5
I0
tp614
a(I0
I0
tp615
a(I6
I0
tp616
a(I0
I0
tp617
a(I9
I0
tp618
a(I7
I0
tp619
asg39
S'0'
sg40
S''
sg42
g43
((lp620
g241
atRp621
sg47
(lp622
(dp623
g50
Nsg51
Nsg52
Nsg53
(lp624
sg55
Nsg56
Nsg57
Nsg22
g246
sasg59
(dp625
g61
I0
sg62
I0
sg63
I0
ssg64
I00
sg65
g516
sg67
I107
sg68
(lp626
I1
aI1
aI0
aI0
aI0
aI0
aI0
asg70
g518
sg72
I2
sg73
I1
sg74
I0
sg75
I0
sg76
S'Cavalier'
p627
sg78
I0
sg79
S'enemy'
p628
sg81
(I7
I9
tp629
sa(dp630
g7
S'SoftGuard'
p631
sg9
(lp632
I80
aI40
aI15
aI30
aI15
aI25
aI28
aI20
aI0
aI0
asg11
I00
sg12
(lp633
(dp634
g15
Nsg16
I00
sg17
I00
sg18
I45
sg19
I00
sg20
I108
sg22
S'Iron Lance'
p635
sa(dp636
g15
Nsg16
I00
sg17
I01
sg18
I1
sg19
I00
sg20
I108
sg22
S'Skeleton Key'
p637
sasg24
(lp638
I50
aI50
aI50
aI50
aI50
aI50
aI50
aI50
aI50
aI50
asg26
I18
sg27
(lp639
(I18
I0
tp640
a(I6
I0
tp641
a(I1
I0
tp642
a(I2
I0
tp643
a(I0
I0
tp644
a(I0
I0
tp645
a(I10
I0
tp646
a(I1
I0
tp647
a(I13
I0
tp648
a(I4
I0
tp649
asg39
S'0'
sg40
S''
sg42
g43
((ltRp650
sg47
(lp651
(dp652
g50
Nsg51
Nsg52
Nsg53
(lp653
sg55
Nsg56
Nsg57
Nsg22
g312
sasg59
(dp654
g61
I0
sg62
I0
sg63
I0
ssg64
I00
sg65
g516
sg67
I108
sg68
(lp655
I0
aI1
aI0
aI0
aI0
aI0
aI0
asg70
g518
sg72
I1
sg73
I3
sg74
I0
sg75
I0
sg76
S'Knight'
p656
sg78
I0
sg79
S'enemy'
p657
sg81
(I12
I6
tp658
sa(dp659
g7
S'Attack'
p660
sg9
(lp661
I80
aI40
aI15
aI40
aI32
aI30
aI18
aI20
aI0
aI0
asg11
I00
sg12
(lp662
(dp663
g15
Nsg16
I00
sg17
I00
sg18
I45
sg19
I00
sg20
I109
sg22
S'Iron Lance'
p664
sasg24
(lp665
I50
aI50
aI50
aI50
aI50
aI50
aI50
aI50
aI50
aI50
asg26
I19
sg27
(lp666
(I19
I0
tp667
a(I4
I0
tp668
a(I1
I0
tp669
a(I9
I0
tp670
a(I8
I0
tp671
a(I0
I0
tp672
a(I4
I0
tp673
a(I0
I0
tp674
a(I9
I0
tp675
a(I5
I0
tp676
asg39
S'0'
sg40
S''
sg42
g43
((ltRp677
sg47
(lp678
(dp679
g50
Nsg51
Nsg52
Nsg53
(lp680
sg55
Nsg56
Nsg57
Nsg22
S'Fleet_of_Foot'
p681
sasg59
(dp682
g61
I0
sg62
I0
sg63
I0
ssg64
I00
sg65
g516
sg67
I109
sg68
(lp683
I0
aI1
aI0
aI0
aI0
aI0
aI0
asg70
g518
sg72
I0
sg73
I2
sg74
I0
sg75
I0
sg76
S'Skirmisher'
p684
sg78
I0
sg79
S'enemy'
p685
sg81
(I12
I7
tp686
sa(dp687
g7
S'Attack'
p688
sg9
(lp689
I85
aI55
aI15
aI35
aI30
aI15
aI15
aI15
aI0
aI0
asg11
I00
sg12
(lp690
(dp691
g15
Nsg16
I00
sg17
I00
sg18
I45
sg19
I00
sg20
I110
sg22
S'Iron Axe'
p692
sasg24
(lp693
I50
aI50
aI50
aI50
aI50
aI50
aI50
aI50
aI50
aI50
asg26
I21
sg27
(lp694
(I21
I0
tp695
a(I6
I0
tp696
a(I1
I0
tp697
a(I2
I0
tp698
a(I4
I0
tp699
a(I0
I0
tp700
a(I2
I0
tp701
a(I0
I0
tp702
a(I11
I0
tp703
a(I5
I0
tp704
asg39
S'0'
sg40
S''
sg42
g43
((ltRp705
sg47
(lp706
(dp707
g50
Nsg51
Nsg52
Nsg53
(lp708
sg55
Nsg56
I0
sg57
Nsg22
g142
sasg59
(dp709
g61
I0
sg62
I0
sg63
I0
ssg64
I00
sg65
g516
sg67
I110
sg68
(lp710
I0
aI0
aI1
aI0
aI0
aI0
aI0
asg70
g518
sg72
I4
sg73
I2
sg74
I0
sg75
I0
sg76
S'Fighter'
p711
sg78
I0
sg79
S'enemy'
p712
sg81
(I20
I7
tp713
sa(dp714
g7
S'Attack'
p715
sg9
(lp716
I80
aI40
aI15
aI40
aI32
aI30
aI18
aI20
aI0
aI0
asg11
I00
sg12
(lp717
(dp718
g15
Nsg16
I00
sg17
I00
sg18
I46
sg19
I00
sg20
I111
sg22
S'Iron Sword'
p719
sasg24
(lp720
I50
aI50
aI50
aI50
aI50
aI50
aI50
aI50
aI50
aI50
asg26
I18
sg27
(lp721
(I18
I0
tp722
a(I4
I0
tp723
a(I1
I0
tp724
a(I8
I0
tp725
a(I8
I0
tp726
a(I0
I0
tp727
a(I4
I0
tp728
a(I0
I0
tp729
a(I9
I0
tp730
a(I5
I0
tp731
asg39
S'0'
sg40
S''
sg42
g540
sg47
(lp732
(dp733
g50
Nsg51
Nsg52
Nsg53
(lp734
sg55
Nsg56
Nsg57
Nsg22
g413
sasg59
(dp735
g61
I0
sg62
I0
sg63
I0
ssg64
I00
sg65
g516
sg67
I111
sg68
(lp736
I1
aI0
aI0
aI0
aI0
aI0
aI0
asg70
g518
sg72
I4
sg73
I1
sg74
I0
sg75
I0
sg76
S'Mercenary'
p737
sg78
I0
sg79
S'enemy'
p738
sg81
(I4
I16
tp739
sa(dp740
g7
S'Attack'
p741
sg9
(lp742
I80
aI40
aI15
aI40
aI32
aI30
aI18
aI20
aI0
aI0
asg11
I00
sg12
(lp743
(dp744
g15
Nsg16
I00
sg17
I00
sg18
I46
sg19
I00
sg20
I112
sg22
S'Iron Sword'
p745
sasg24
(lp746
I50
aI50
aI50
aI50
aI50
aI50
aI50
aI50
aI50
aI50
asg26
I18
sg27
(lp747
(I18
I0
tp748
a(I4
I0
tp749
a(I1
I0
tp750
a(I8
I0
tp751
a(I8
I0
tp752
a(I0
I0
tp753
a(I4
I0
tp754
a(I0
I0
tp755
a(I9
I0
tp756
a(I5
I0
tp757
asg39
S'0'
sg40
S''
sg42
g540
sg47
(lp758
(dp759
g50
Nsg51
Nsg52
Nsg53
(lp760
sg55
Nsg56
Nsg57
Nsg22
g413
sasg59
(dp761
g61
I0
sg62
I0
sg63
I0
ssg64
I00
sg65
g516
sg67
I112
sg68
(lp762
I1
aI0
aI0
aI0
aI0
aI0
aI0
asg70
g518
sg72
I4
sg73
I1
sg74
I0
sg75
I0
sg76
S'Mercenary'
p763
sg78
I0
sg79
S'enemy'
p764
sg81
(I20
I15
tp765
sa(dp766
g7
S'Attack'
p767
sg9
(lp768
I80
aI40
aI15
aI40
aI32
aI30
aI18
aI20
aI0
aI0
asg11
I00
sg12
(lp769
(dp770
g15
Nsg16
I00
sg17
I00
sg18
I44
sg19
I00
sg20
I113
sg22
S'Iron Sword'
p771
sasg24
(lp772
I50
aI50
aI50
aI50
aI50
aI50
aI50
aI50
aI50
aI50
asg26
I2
sg27
(lp773
(I18
I0
tp774
a(I4
I0
tp775
a(I1
I0
tp776
a(I8
I0
tp777
a(I8
I0
tp778
a(I0
I0
tp779
a(I4
I0
tp780
a(I0
I0
tp781
a(I9
I0
tp782
a(I5
I0
tp783
asg39
S'0'
sg40
S''
sg42
g540
sg47
(lp784
(dp785
g50
Nsg51
Nsg52
Nsg53
(lp786
sg55
Nsg56
Nsg57
Nsg22
g413
sa(dp787
g50
Nsg51
Nsg52
Nsg53
(lp788
sg55
g291
sg56
Nsg57
Nsg22
S'Provoke_Child'
p789
sasg59
(dp790
g61
I0
sg62
I0
sg63
I0
ssg64
I00
sg65
g516
sg67
I113
sg68
(lp791
I1
aI0
aI0
aI0
aI0
aI0
aI0
asg70
g518
sg72
I4
sg73
I1
sg74
I0
sg75
I0
sg76
S'Mercenary'
p792
sg78
I0
sg79
S'enemy'
p793
sg81
(I20
I16
tp794
sa(dp795
g7
S'Attack'
p796
sg9
(lp797
I80
aI40
aI15
aI40
aI32
aI30
aI18
aI20
aI0
aI0
asg11
I00
sg12
(lp798
(dp799
g15
Nsg16
I00
sg17
I00
sg18
I46
sg19
I00
sg20
I114
sg22
S'Iron Sword'
p800
sasg24
(lp801
I50
aI50
aI50
aI50
aI50
aI50
aI50
aI50
aI50
aI50
asg26
I19
sg27
(lp802
(I19
I0
tp803
a(I4
I0
tp804
a(I1
I0
tp805
a(I8
I0
tp806
a(I8
I0
tp807
a(I0
I0
tp808
a(I5
I0
tp809
a(I0
I0
tp810
a(I9
I0
tp811
a(I5
I0
tp812
asg39
S'0'
sg40
S''
sg42
g540
sg47
(lp813
(dp814
g50
Nsg51
Nsg52
Nsg53
(lp815
sg55
Nsg56
Nsg57
Nsg22
g413
sasg59
(dp816
g61
I0
sg62
I0
sg63
I0
ssg64
I00
sg65
g516
sg67
I114
sg68
(lp817
I1
aI0
aI0
aI0
aI0
aI0
aI0
asg70
g518
sg72
I4
sg73
I2
sg74
I0
sg75
I0
sg76
S'Mercenary'
p818
sg78
I0
sg79
S'enemy'
p819
sg81
Nsa(dp820
g7
S'Attack'
p821
sg9
(lp822
I80
aI40
aI15
aI40
aI32
aI30
aI18
aI20
aI0
aI0
asg11
I00
sg12
(lp823
(dp824
g15
Nsg16
I00
sg17
I00
sg18
I46
sg19
I00
sg20
I115
sg22
S'Iron Sword'
p825
sasg24
(lp826
I50
aI50
aI50
aI50
aI50
aI50
aI50
aI50
aI50
aI50
asg26
I19
sg27
(lp827
(I19
I0
tp828
a(I4
I0
tp829
a(I1
I0
tp830
a(I8
I0
tp831
a(I9
I0
tp832
a(I1
I0
tp833
a(I4
I0
tp834
a(I0
I0
tp835
a(I9
I0
tp836
a(I5
I0
tp837
asg39
S'0'
sg40
S''
sg42
g540
sg47
(lp838
(dp839
g50
Nsg51
Nsg52
Nsg53
(lp840
sg55
Nsg56
Nsg57
Nsg22
g413
sasg59
(dp841
g61
I0
sg62
I0
sg63
I0
ssg64
I00
sg65
g516
sg67
I115
sg68
(lp842
I1
aI0
aI0
aI0
aI0
aI0
aI0
asg70
g518
sg72
I4
sg73
I2
sg74
I0
sg75
I0
sg76
S'Mercenary'
p843
sg78
I0
sg79
S'enemy'
p844
sg81
(I12
I11
tp845
sa(dp846
g7
S'Attack'
p847
sg9
(lp848
I80
aI40
aI15
aI40
aI32
aI30
aI18
aI20
aI0
aI0
asg11
I00
sg12
(lp849
(dp850
g15
Nsg16
I00
sg17
I00
sg18
I46
sg19
I00
sg20
I116
sg22
S'Iron Sword'
p851
sasg24
(lp852
I50
aI50
aI50
aI50
aI50
aI50
aI50
aI50
aI50
aI50
asg26
I19
sg27
(lp853
(I19
I0
tp854
a(I4
I0
tp855
a(I1
I0
tp856
a(I8
I0
tp857
a(I9
I0
tp858
a(I0
I0
tp859
a(I4
I0
tp860
a(I0
I0
tp861
a(I9
I0
tp862
a(I5
I0
tp863
asg39
S'0'
sg40
S''
sg42
g540
sg47
(lp864
(dp865
g50
Nsg51
Nsg52
Nsg53
(lp866
sg55
Nsg56
Nsg57
Nsg22
g413
sasg59
(dp867
g61
I0
sg62
I0
sg63
I0
ssg64
I00
sg65
g516
sg67
I116
sg68
(lp868
I1
aI0
aI0
aI0
aI0
aI0
aI0
asg70
g518
sg72
I4
sg73
I2
sg74
I0
sg75
I0
sg76
S'Mercenary'
p869
sg78
I0
sg79
S'enemy'
p870
sg81
(I12
I10
tp871
sa(dp872
g7
S'Attack'
p873
sg9
(lp874
I75
aI35
aI5
aI40
aI28
aI30
aI15
aI15
aI0
aI0
asg11
I00
sg12
(lp875
(dp876
g15
Nsg16
I00
sg17
I00
sg18
I46
sg19
I00
sg20
I117
sg22
S'Iron Sword'
p877
sa(dp878
g15
Nsg16
I00
sg17
I00
sg18
I45
sg19
I00
sg20
I117
sg22
S'Iron Lance'
p879
sasg24
(lp880
I50
aI50
aI50
aI50
aI50
aI50
aI50
aI50
aI50
aI50
asg26
I20
sg27
(lp881
(I20
I0
tp882
a(I5
I0
tp883
a(I0
I0
tp884
a(I2
I0
tp885
a(I5
I0
tp886
a(I0
I0
tp887
a(I6
I0
tp888
a(I0
I0
tp889
a(I9
I0
tp890
a(I7
I0
tp891
asg39
S'0'
sg40
S''
sg42
g621
sg47
(lp892
(dp893
g50
Nsg51
Nsg52
Nsg53
(lp894
sg55
Nsg56
Nsg57
Nsg22
g246
sasg59
(dp895
g61
I0
sg62
I0
sg63
I0
ssg64
I00
sg65
g516
sg67
I117
sg68
(lp896
I1
aI1
aI0
aI0
aI0
aI0
aI0
asg70
g518
sg72
I2
sg73
I1
sg74
I0
sg75
I0
sg76
S'Cavalier'
p897
sg78
I0
sg79
S'enemy'
p898
sg81
(I17
I9
tp899
sa(dp900
g7
S'Attack'
p901
sg9
(lp902
I85
aI55
aI15
aI35
aI30
aI15
aI15
aI15
aI0
aI0
asg11
I00
sg12
(lp903
(dp904
g15
Nsg16
I00
sg17
I00
sg18
I45
sg19
I00
sg20
I118
sg22
S'Iron Axe'
p905
sasg24
(lp906
I50
aI50
aI50
aI50
aI50
aI50
aI50
aI50
aI50
aI50
asg26
I21
sg27
(lp907
(I21
I0
tp908
a(I6
I0
tp909
a(I0
I0
tp910
a(I3
I0
tp911
a(I4
I0
tp912
a(I0
I0
tp913
a(I2
I0
tp914
a(I0
I0
tp915
a(I11
I0
tp916
a(I5
I0
tp917
asg39
S'0'
sg40
S''
sg42
g705
sg47
(lp918
(dp919
g50
Nsg51
Nsg52
Nsg53
(lp920
sg55
Nsg56
I0
sg57
Nsg22
g142
sasg59
(dp921
g61
I0
sg62
I0
sg63
I0
ssg64
I00
sg65
g516
sg67
I118
sg68
(lp922
I0
aI0
aI1
aI0
aI0
aI0
aI0
asg70
g518
sg72
I4
sg73
I2
sg74
I0
sg75
I0
sg76
S'Fighter'
p923
sg78
I0
sg79
S'enemy'
p924
sg81
(I4
I7
tp925
sa(dp926
g7
S'Attack'
p927
sg9
(lp928
I70
aI35
aI10
aI40
aI40
aI30
aI15
aI20
aI0
aI0
asg11
I00
sg12
(lp929
(dp930
g15
Nsg16
I00
sg17
I00
sg18
I46
sg19
I00
sg20
I119
sg22
S'Iron Sword'
p931
sasg24
(lp932
I50
aI50
aI50
aI50
aI50
aI50
aI50
aI50
aI50
aI50
asg26
I17
sg27
(lp933
(I17
I0
tp934
a(I4
I0
tp935
a(I1
I0
tp936
a(I9
I0
tp937
a(I9
I0
tp938
a(I0
I0
tp939
a(I2
I0
tp940
a(I0
I0
tp941
a(I8
I0
tp942
a(I5
I0
tp943
asg39
S'0'
sg40
S''
sg42
g511
sg47
(lp944
(dp945
g50
Nsg51
Nsg52
Nsg53
(lp946
sg55
Nsg56
Nsg57
Nsg22
g58
sasg59
(dp947
g61
I0
sg62
I0
sg63
I0
ssg64
I00
sg65
g516
sg67
I119
sg68
(lp948
I1
aI0
aI0
aI0
aI0
aI0
aI0
asg70
g518
sg72
I0
sg73
I2
sg74
I0
sg75
I0
sg76
S'Myrmidon'
p949
sg78
I0
sg79
S'enemy'
p950
sg81
(I2
I9
tp951
sa(dp952
g7
S'Attack'
p953
sg9
(lp954
I80
aI50
aI15
aI30
aI20
aI25
aI12
aI15
aI0
aI0
asg11
I00
sg12
(lp955
(dp956
g15
Nsg16
I00
sg17
I00
sg18
I45
sg19
I00
sg20
I120
sg22
S'Iron Lance'
p957
sasg24
(lp958
I50
aI50
aI50
aI50
aI50
aI50
aI50
aI50
aI50
aI50
asg26
I21
sg27
(lp959
(I21
I0
tp960
a(I4
I0
tp961
a(I0
I0
tp962
a(I1
I0
tp963
a(I1
I0
tp964
a(I0
I0
tp965
a(I0
I0
tp966
a(I0
I0
tp967
a(I6
I0
tp968
a(I5
I0
tp969
asg39
S'0'
sg40
S''
sg42
g43
((ltRp970
sg47
(lp971
(dp972
g50
Nsg51
Nsg52
Nsg53
(lp973
sg55
Nsg56
Nsg57
Nsg22
g345
sasg59
(dp974
g61
I0
sg62
I0
sg63
I0
ssg64
I00
sg65
g516
sg67
I120
sg68
(lp975
I0
aI1
aI0
aI0
aI0
aI0
aI0
asg70
g518
sg72
I4
sg73
I2
sg74
I0
sg75
I0
sg76
S'Soldier'
p976
sg78
I0
sg79
S'enemy'
p977
sg81
(I3
I9
tp978
sa(dp979
g7
S'Attack'
p980
sg9
(lp981
I80
aI50
aI15
aI30
aI20
aI25
aI12
aI15
aI0
aI0
asg11
I00
sg12
(lp982
(dp983
g15
Nsg16
I00
sg17
I00
sg18
I45
sg19
I00
sg20
I121
sg22
S'Iron Lance'
p984
sasg24
(lp985
I50
aI50
aI50
aI50
aI50
aI50
aI50
aI50
aI50
aI50
asg26
I20
sg27
(lp986
(I20
I0
tp987
a(I3
I0
tp988
a(I0
I0
tp989
a(I0
I0
tp990
a(I1
I0
tp991
a(I0
I0
tp992
a(I0
I0
tp993
a(I0
I0
tp994
a(I6
I0
tp995
a(I5
I0
tp996
asg39
S'0'
sg40
S''
sg42
g970
sg47
(lp997
(dp998
g50
Nsg51
Nsg52
Nsg53
(lp999
sg55
Nsg56
Nsg57
Nsg22
g345
sasg59
(dp1000
g61
I0
sg62
I0
sg63
I0
ssg64
I00
sg65
g516
sg67
I121
sg68
(lp1001
I0
aI1
aI0
aI0
aI0
aI0
aI0
asg70
g518
sg72
I4
sg73
I2
sg74
I0
sg75
I0
sg76
S'Soldier'
p1002
sg78
I0
sg79
S'enemy'
p1003
sg81
(I21
I9
tp1004
sa(dp1005
g7
S'Attack'
p1006
sg9
(lp1007
I70
aI35
aI10
aI40
aI40
aI30
aI15
aI20
aI0
aI0
asg11
I00
sg12
(lp1008
(dp1009
g15
Nsg16
I00
sg17
I00
sg18
I46
sg19
I00
sg20
I122
sg22
S'Iron Sword'
p1010
sasg24
(lp1011
I50
aI50
aI50
aI50
aI50
aI50
aI50
aI50
aI50
aI50
asg26
I16
sg27
(lp1012
(I16
I0
tp1013
a(I4
I0
tp1014
a(I1
I0
tp1015
a(I9
I0
tp1016
a(I9
I0
tp1017
a(I0
I0
tp1018
a(I2
I0
tp1019
a(I0
I0
tp1020
a(I8
I0
tp1021
a(I5
I0
tp1022
asg39
S'0'
sg40
S''
sg42
g511
sg47
(lp1023
(dp1024
g50
Nsg51
Nsg52
Nsg53
(lp1025
sg55
Nsg56
Nsg57
Nsg22
g58
sasg59
(dp1026
g61
I0
sg62
I0
sg63
I0
ssg64
I00
sg65
g516
sg67
I122
sg68
(lp1027
I1
aI0
aI0
aI0
aI0
aI0
aI0
asg70
g518
sg72
I0
sg73
I1
sg74
I0
sg75
I0
sg76
S'Myrmidon'
p1028
sg78
I0
sg79
S'enemy'
p1029
sg81
(I22
I9
tp1030
sasS'convoy'
p1031
(lp1032
sS'allreinforcements'
p1033
(dp1034
sS'base_conversations'
p1035
ccollections
OrderedDict
p1036
((ltRp1037
sS'phase_music'
p1038
(S'Fire Emblem IfFates + Awakening BGM - Conquest (CalmAblaze Mix Extended)'
p1039
S'Battle (Enemy Phase) - Fire Emblem Heroes Music Extended'
p1040
Ntp1041
sS'playtime'
p1042
I172402
sS'message'
p1043
(lp1044
sS'unlocked_lore'
p1045
(lp1046
sS'statistics'
p1047
(lp1048
sS'market_items'
p1049
g43
((ltRp1050
sS'support'
p1051
NsS'objective'
p1052
(S'Defeat Boss'
p1053
S'Defeat Boss'
p1054
S'Lord dies,OR,Party size falls below 5. Currently {gameStateObj.get_total_party_members()}'
p1055
tp1056
sS'turncount'
p1057
I1
sS'map'
p1058
(dp1059
S'HP'
p1060
(lp1061
sS'command_list'
p1062
(lp1063
ssS'state_list'
p1064
((lp1065
g7
aS'status'
p1066
aS'phase_change'
p1067
a(lp1068
S'pop'
p1069
atp1070
sS'prefabs'
p1071
(dp1072
sS'level_constants'
p1073
ccollections
Counter
p1074
((dtRp1075
sS'phase_info'
p1076
(I1
I0
tp1077
sS'factions'
p1078
(dp1079
S'Empire'
p1080
(S'Empire'
S'Empire'
S''
tp1081
sS'Resistance'
p1082
(g518
g516
S''
tp1083
ssS'triggers'
p1084
(dp1085
sS'mode'
p1086
(dp1087
S'autolevel_enemies'
p1088
S'0'
sS'death'
p1089
I1
sg70
S'Hard'
p1090
sS'color'
p1091
S'Green'
p1092
sS'player_bases'
p1093
(lp1094
I0
aI0
aI0
aI0
aI0
aI0
aI0
aI0
aI0
aI0
asS'growths'
p1095
I0
sS'rng'
p1096
S'true_hit'
p1097
sS'autolevel_players'
p1098
S'0'
sS'enemy_growths'
p1099
(lp1100
I0
aI0
aI0
aI0
aI0
aI0
aI0
aI0
aI0
aI0
asS'truelevel_enemies'
p1101
S'0'
sS'player_growths'
p1102
(lp1103
I0
aI0
aI0
aI0
aI0
aI0
aI0
aI0
aI0
aI0
asS'enemy_bases'
p1104
(lp1105
I0
aI0
aI0
aI0
aI0
aI0
aI0
aI0
aI0
aI0
asS'id'
p1106
S'1'
sS'tutorial'
p1107
S'1'
ssS'game_constants'
p1108
g1074
((dp1109
S'money'
p1110
I0
sg73
S'DEBUG'
p1111
stRp1112
s.