(dp1
S'talk_options'
p2
(lp3
sS'allunits'
p4
(lp5
(dp6
S'ai'
p7
S'None'
p8
sS'growths'
p9
(lp10
I80
aI35
aI0
aI55
aI55
aI30
aI20
aI20
aI0
aI0
asS'dead'
p11
I00
sS'items'
p12
(lp13
(dp14
S'c_uses'
p15
NsS'locked'
p16
I00
sS'droppable'
p17
I00
sS'uses'
p18
I46
sS'event_combat'
p19
I00
sS'owner'
p20
S'Jaeger'
p21
sS'id'
p22
S'Iron Sword'
p23
sasS'growth_points'
p24
(lp25
I50
aI50
aI50
aI50
aI50
aI50
aI50
aI50
aI50
aI50
asS'currenthp'
p26
I16
sS'stats'
p27
(lp28
(I16
I0
tp29
a(I8
I0
tp30
a(I2
I0
tp31
a(I13
I0
tp32
a(I14
I0
tp33
a(I7
I0
tp34
a(I5
I0
tp35
a(I2
I0
tp36
a(I8
I0
tp37
a(I5
I0
tp38
asS'event_id'
p39
S'0'
sS'desc'
p40
S'A strong-hearted renegade who often acts before he thinks.'
p41
sS'tags'
p42
c__builtin__
set
p43
((lp44
S'Lord'
p45
atRp46
sS'status_effects'
p47
(lp48
(dp49
S'count'
p50
NsS'time_left'
p51
NsS'upkeep_sc_count'
p52
NsS'children'
p53
(lp54
sS'parent_id'
p55
NsS'charge'
p56
NsS'rhythm_sc_count'
p57
Nsg22
S'Riposte'
p58
sasS'records'
p59
(dp60
S'damage'
p61
I0
sS'kills'
p62
I0
sS'healing'
p63
I0
ssS'finished'
p64
I00
sS'faction_icon'
p65
S'Neutral'
p66
sS'u_id'
p67
g21
sS'wexp'
p68
(lp69
I8
aI0
aI0
aI0
aI0
aI0
aI0
asS'name'
p70
S'Jaeger'
p71
sS'movement_group'
p72
I0
sS'level'
p73
I1
sS'gender'
p74
I2
sS'TRV'
p75
I0
sS'klass'
p76
S'Myrmidon'
p77
sS'exp'
p78
I0
sS'team'
p79
S'player'
p80
sS'position'
p81
(I10
I17
tp82
sa(dp83
g7
S'None'
p84
sg9
(lp85
I50
aI15
aI60
aI25
aI40
aI60
aI15
aI55
aI0
aI0
asg11
I00
sg12
(lp86
(dp87
g15
Nsg16
I00
sg17
I00
sg18
I30
sg19
I00
sg20
S'NANC'
p88
sg22
S'Glimmer'
p89
sa(dp90
g15
Nsg16
I00
sg17
I00
sg18
I30
sg19
I00
sg20
g88
sg22
S'Heal'
p91
sasg24
(lp92
I50
aI50
aI50
aI50
aI50
aI50
aI50
aI50
aI50
aI50
asg26
I18
sg27
(lp93
(I18
I0
tp94
a(I0
I0
tp95
a(I2
I0
tp96
a(I4
I0
tp97
a(I8
I0
tp98
a(I6
I0
tp99
a(I2
I0
tp100
a(I6
I0
tp101
a(I4
I0
tp102
a(I5
I0
tp103
asg39
S'0'
sg40
S'A shy but kind-hearted young woman. Has an affinity with the spiritual.'
p104
sg42
g43
((ltRp105
sg47
(lp106
(dp107
g50
Nsg51
Nsg52
Nsg53
(lp108
sg55
Nsg56
Nsg57
Nsg22
S'Healtouch'
p109
sasg59
(dp110
g61
I0
sg62
I0
sg63
I0
ssg64
I00
sg65
g66
sg67
g88
sg68
(lp111
I0
aI0
aI0
aI0
aI1
aI0
aI0
asg70
S'NANC'
p112
sg72
I5
sg73
I1
sg74
I7
sg75
I0
sg76
S'Cleric'
p113
sg78
I0
sg79
S'player'
p114
sg81
(I7
I18
tp115
sa(dp116
g7
S'None'
p117
sg9
(lp118
I80
aI65
aI5
aI40
aI20
aI40
aI25
aI15
aI0
aI0
asg11
I00
sg12
(lp119
(dp120
g15
Nsg16
I00
sg17
I00
sg18
I45
sg19
I00
sg20
S'Kenboslice'
p121
sg22
S'Iron Axe'
p122
sa(dp123
g15
Nsg16
I00
sg17
I00
sg18
I3
sg19
I00
sg20
g121
sg22
S'Vulnerary'
p124
sasg24
(lp125
I50
aI50
aI50
aI50
aI50
aI50
aI50
aI50
aI50
aI50
asg26
I21
sg27
(lp126
(I21
I0
tp127
a(I8
I0
tp128
a(I0
I0
tp129
a(I7
I0
tp130
a(I7
I0
tp131
a(I3
I0
tp132
a(I5
I0
tp133
a(I1
I0
tp134
a(I11
I0
tp135
a(I5
I0
tp136
asg39
S'0'
sg40
S'A jovial former sailor. Always ready for a new adventure.'
p137
sg42
g43
((ltRp138
sg47
(lp139
(dp140
g50
Nsg51
Nsg52
Nsg53
(lp141
sg55
Nsg56
I0
sg57
Nsg22
S'Cleave'
p142
sasg59
(dp143
g61
I0
sg62
I0
sg63
I0
ssg64
I00
sg65
g66
sg67
g121
sg68
(lp144
I0
aI0
aI16
aI0
aI0
aI0
aI0
asg70
S'Kenboslice'
p145
sg72
I4
sg73
I1
sg74
I0
sg75
I0
sg76
S'Fighter'
p146
sg78
I0
sg79
S'player'
p147
sg81
(I8
I17
tp148
sa(dp149
g7
S'None'
p150
sg9
(lp151
I55
aI45
aI25
aI50
aI60
aI50
aI15
aI35
aI0
aI0
asg11
I00
sg12
(lp152
(dp153
g15
Nsg16
I00
sg17
I00
sg18
I45
sg19
I00
sg20
S'Olive'
p154
sg22
S'Willow Bow'
p155
sa(dp156
g15
Nsg16
I00
sg17
I00
sg18
I3
sg19
I00
sg20
g154
sg22
S'Vulnerary'
p157
sasg24
(lp158
I50
aI50
aI50
aI50
aI50
aI50
aI50
aI50
aI50
aI50
asg26
I17
sg27
(lp159
(I17
I0
tp160
a(I4
I0
tp161
a(I2
I0
tp162
a(I5
I0
tp163
a(I6
I0
tp164
a(I4
I0
tp165
a(I3
I0
tp166
a(I2
I0
tp167
a(I7
I0
tp168
a(I5
I0
tp169
asg39
S'0'
sg40
S'A quiet archer most at home in the wilderness.'
p170
sg42
g43
((ltRp171
sg47
(lp172
(dp173
g50
Nsg51
Nsg52
Nsg53
(lp174
sg55
Nsg56
Nsg57
Nsg22
S'Prescience'
p175
sasg59
(dp176
g61
I0
sg62
I0
sg63
I0
ssg64
I00
sg65
g66
sg67
g154
sg68
(lp177
I0
aI0
aI0
aI16
aI0
aI0
aI0
asg70
S'Olive'
p178
sg72
I0
sg73
I1
sg74
I6
sg75
I0
sg76
S'Archer'
p179
sg78
I0
sg79
S'player'
p180
sg81
(I16
I18
tp181
sa(dp182
g7
S'None'
p183
sg9
(lp184
I55
aI45
aI30
aI50
aI60
aI50
aI15
aI35
aI0
aI0
asg11
I00
sg12
(lp185
(dp186
g15
Nsg16
I00
sg17
I00
sg18
I30
sg19
I00
sg20
S'Mama Coco'
p187
sg22
S'Fire'
p188
sa(dp189
g15
Nsg16
I00
sg17
I00
sg18
I3
sg19
I00
sg20
g187
sg22
S'Vulnerary'
p190
sasg24
(lp191
I50
aI50
aI50
aI50
aI50
aI50
aI50
aI50
aI50
aI50
asg26
I17
sg27
(lp192
(I17
I0
tp193
a(I1
I0
tp194
a(I6
I0
tp195
a(I6
I0
tp196
a(I7
I0
tp197
a(I8
I0
tp198
a(I3
I0
tp199
a(I5
I2
tp200
a(I5
I0
tp201
a(I5
I0
tp202
asg39
S'0'
sg40
S'A forthright but elegant and refined sorceress.'
p203
sg42
g43
((ltRp204
sg47
(lp205
(dp206
g50
Nsg51
Nsg52
Nsg53
(lp207
sg55
Nsg56
Nsg57
Nsg22
S'Resistance +2'
p208
sa(dp209
g50
Nsg51
Nsg52
Nsg53
(lp210
sg55
Nsg56
Nsg57
Nsg22
S'Focus'
p211
sasg59
(dp212
g61
I0
sg62
I0
sg63
I0
ssg64
I00
sg65
g66
sg67
g187
sg68
(lp213
I0
aI0
aI0
aI0
aI0
aI6
aI0
asg70
S'Mama Coco'
p214
sg72
I5
sg73
I1
sg74
I5
sg75
I0
sg76
S'Mage'
p215
sg78
I0
sg79
S'player'
p216
sg81
(I16
I19
tp217
sa(dp218
g7
S'None'
p219
sg9
(lp220
I80
aI40
aI5
aI40
aI50
aI40
aI25
aI20
aI0
aI0
asg11
I00
sg12
(lp221
(dp222
g15
Nsg16
I00
sg17
I00
sg18
I46
sg19
I00
sg20
S'Sergio'
p223
sg22
S'Iron Sword'
p224
sa(dp225
g15
Nsg16
I00
sg17
I00
sg18
I45
sg19
I00
sg20
g223
sg22
S'Iron Lance'
p226
sasg24
(lp227
I50
aI50
aI50
aI50
aI50
aI50
aI50
aI50
aI50
aI50
asg26
I20
sg27
(lp228
(I20
I0
tp229
a(I7
I0
tp230
a(I1
I0
tp231
a(I5
I0
tp232
a(I7
I0
tp233
a(I2
I0
tp234
a(I6
I0
tp235
a(I1
I0
tp236
a(I9
I0
tp237
a(I7
I0
tp238
asg39
S'0'
sg40
S"A disgraced Imperial knight now in Althea's service."
p239
sg42
g43
((lp240
S'Mounted'
p241
atRp242
sg47
(lp243
(dp244
g50
Nsg51
Nsg52
Nsg53
(lp245
sg55
Nsg56
Nsg57
Nsg22
S'Canto'
p246
sasg59
(dp247
g61
I0
sg62
I0
sg63
I0
ssg64
I00
sg65
g66
sg67
g223
sg68
(lp248
I11
aI16
aI0
aI0
aI0
aI0
aI0
asg70
S'Sergio'
p249
sg72
I2
sg73
I1
sg74
I0
sg75
I0
sg76
S'Cavalier'
p250
sg78
I0
sg79
S'player'
p251
sg81
(I10
I19
tp252
sa(dp253
g7
S'None'
p254
sg9
(lp255
I75
aI40
aI20
aI40
aI65
aI45
aI25
aI20
aI0
aI0
asg11
I00
sg12
(lp256
(dp257
g15
Nsg16
I00
sg17
I00
sg18
I46
sg19
I00
sg20
S'beautifulcody'
p258
sg22
S'Iron Sword'
p259
sa(dp260
g15
Nsg16
I00
sg17
I00
sg18
I3
sg19
I00
sg20
g258
sg22
S'Vulnerary'
p261
sasg24
(lp262
I50
aI50
aI50
aI50
aI50
aI50
aI50
aI50
aI50
aI50
asg26
I18
sg27
(lp263
(I18
I0
tp264
a(I4
I0
tp265
a(I2
I0
tp266
a(I4
I0
tp267
a(I10
I0
tp268
a(I8
I0
tp269
a(I3
I0
tp270
a(I1
I0
tp271
a(I6
I0
tp272
a(I6
I0
tp273
asg39
S'0'
sg40
S'An energetic thief with a kleptomanic streak.'
p274
sg42
g43
((ltRp275
sg47
(lp276
(dp277
g50
Nsg51
Nsg52
Nsg53
(lp278
sg55
Nsg56
Nsg57
Nsg22
S'Locktouch'
p279
sasg59
(dp280
g61
I0
sg62
I0
sg63
I0
ssg64
I00
sg65
g66
sg67
g258
sg68
(lp281
I16
aI0
aI0
aI0
aI0
aI0
aI0
asg70
S'beautifulcody'
p282
sg72
I0
sg73
I1
sg74
I5
sg75
I0
sg76
S'Thief'
p283
sg78
I0
sg79
S'player'
p284
sg81
(I8
I19
tp285
sa(dp286
g7
S'None'
p287
sg9
(lp288
I90
aI45
aI15
aI35
aI30
aI30
aI55
aI20
aI0
aI0
asg11
I00
sg12
(lp289
(dp290
g15
Nsg16
I00
sg17
I00
sg18
I45
sg19
I00
sg20
S'Sir Carter'
p291
sg22
S'Iron Lance'
p292
sa(dp293
g15
Nsg16
I00
sg17
I00
sg18
I3
sg19
I00
sg20
g291
sg22
S'Vulnerary'
p294
sasg24
(lp295
I50
aI50
aI50
aI50
aI50
aI50
aI50
aI50
aI50
aI50
asg26
I25
sg27
(lp296
(I25
I0
tp297
a(I9
I0
tp298
a(I0
I0
tp299
a(I6
I0
tp300
a(I3
I0
tp301
a(I3
I0
tp302
a(I9
I0
tp303
a(I3
I0
tp304
a(I13
I0
tp305
a(I4
I0
tp306
asg39
S'0'
sg40
S'An avid scholar. Interested in esoteric philosophy.'
p307
sg42
g43
((ltRp308
sg47
(lp309
(dp310
g50
Nsg51
Nsg52
Nsg53
(lp311
sg55
Nsg56
Nsg57
Nsg22
S'Provoke'
p312
sasg59
(dp313
g61
I0
sg62
I0
sg63
I0
ssg64
I00
sg65
g66
sg67
g291
sg68
(lp314
I0
aI16
aI0
aI0
aI0
aI0
aI0
asg70
S'Sir Carter'
p315
sg72
I1
sg73
I1
sg74
I0
sg75
I0
sg76
S'Knight'
p316
sg78
I0
sg79
S'player'
p317
sg81
(I16
I17
tp318
sa(dp319
g7
S'None'
p320
sg9
(lp321
I80
aI45
aI15
aI35
aI25
aI25
aI45
aI30
aI0
aI0
asg11
I00
sg12
(lp322
(dp323
g15
Nsg16
I00
sg17
I00
sg18
I45
sg19
I00
sg20
S'Not Tracer'
p324
sg22
S'Iron Lance'
p325
sa(dp326
g15
Nsg16
I00
sg17
I00
sg18
I20
sg19
I00
sg20
g324
sg22
S'Javelin'
p327
sasg24
(lp328
I50
aI50
aI50
aI50
aI50
aI50
aI50
aI50
aI50
aI50
asg26
I22
sg27
(lp329
(I22
I0
tp330
a(I4
I0
tp331
a(I0
I0
tp332
a(I1
I0
tp333
a(I1
I0
tp334
a(I1
I0
tp335
a(I3
I0
tp336
a(I1
I0
tp337
a(I6
I0
tp338
a(I5
I0
tp339
asg39
S'0'
sg40
S'A moody, sarcastic soldier.'
p340
sg42
g43
((ltRp341
sg47
(lp342
(dp343
g50
Nsg51
Nsg52
Nsg53
(lp344
sg55
Nsg56
Nsg57
Nsg22
S'Synergy'
p345
sasg59
(dp346
g61
I0
sg62
I0
sg63
I0
ssg64
I00
sg65
g66
sg67
g324
sg68
(lp347
I0
aI21
aI0
aI0
aI0
aI0
aI0
asg70
S'Not Tracer'
p348
sg72
I4
sg73
I1
sg74
I5
sg75
I0
sg76
S'Soldier'
p349
sg78
I0
sg79
S'player'
p350
sg81
(I15
I17
tp351
sa(dp352
g7
S'None'
p353
sg9
(lp354
I65
aI15
aI35
aI45
aI55
aI55
aI40
aI65
aI0
aI0
asg11
I00
sg12
(lp355
(dp356
g15
Nsg16
I00
sg17
I00
sg18
I20
sg19
I00
sg20
S'T Rob'
p357
sg22
S'Shine'
p358
sa(dp359
g15
Nsg16
I00
sg17
I00
sg18
I15
sg19
I00
sg20
g357
sg22
S'Mend'
p360
sa(dp361
g15
Nsg16
I00
sg17
I00
sg18
I10
sg19
I00
sg20
g357
sg22
S'Fortune'
p362
sasg24
(lp363
I50
aI50
aI50
aI50
aI50
aI50
aI50
aI50
aI50
aI50
asg26
I18
sg27
(lp364
(I18
I0
tp365
a(I3
I0
tp366
a(I7
I0
tp367
a(I8
I0
tp368
a(I9
I0
tp369
a(I7
I0
tp370
a(I3
I0
tp371
a(I7
I0
tp372
a(I4
I0
tp373
a(I5
I0
tp374
asg39
S'0'
sg40
S"The resistance's leader. Ambitious and inquisitive."
p375
sg42
g43
((ltRp376
sg47
(lp377
(dp378
g50
Nsg51
Nsg52
Nsg53
(lp379
sg55
Nsg56
Nsg57
Nsg22
S'Inspiration'
p380
sasg59
(dp381
g61
I0
sg62
I0
sg63
I0
ssg64
I00
sg65
g66
sg67
g357
sg68
(lp382
I0
aI0
aI0
aI0
aI31
aI0
aI0
asg70
S'T Rob'
p383
sg72
I5
sg73
I1
sg74
I0
sg75
I0
sg76
S'Tactician'
p384
sg78
I0
sg79
S'player'
p385
sg81
(I15
I19
tp386
sa(dp387
g7
S'None'
p388
sg9
(lp389
I90
aI45
aI5
aI40
aI30
aI30
aI35
aI25
aI0
aI0
asg11
I00
sg12
(lp390
(dp391
g15
Nsg16
I00
sg17
I00
sg18
I20
sg19
I00
sg20
S'Dornstar'
p392
sg22
S'Rusted Sword'
p393
sa(dp394
g15
Nsg16
I00
sg17
I00
sg18
I3
sg19
I00
sg20
g392
sg22
S'Vulnerary'
p395
sasg24
(lp396
I50
aI50
aI50
aI50
aI50
aI50
aI50
aI50
aI50
aI50
asg26
I25
sg27
(lp397
(I20
I5
tp398
a(I9
I0
tp399
a(I0
I0
tp400
a(I11
I0
tp401
a(I9
I0
tp402
a(I4
I0
tp403
a(I5
I0
tp404
a(I2
I0
tp405
a(I9
I0
tp406
a(I5
I0
tp407
asg39
S'0'
sg40
S'A troubled wandererer with a mysterious past.'
p408
sg42
g43
((ltRp409
sg47
(lp410
(dp411
g50
Nsg51
Nsg52
Nsg53
(lp412
sg55
Nsg56
Nsg57
Nsg22
S'Initiative'
p413
sa(dp414
g50
Nsg51
Nsg52
Nsg53
(lp415
sg55
Nsg56
Nsg57
Nsg22
S'fMaximum HP +5'
p416
sasg59
(dp417
g61
I0
sg62
I0
sg63
I0
ssg64
I00
sg65
g66
sg67
g392
sg68
(lp418
I41
aI0
aI0
aI0
aI0
aI0
aI0
asg70
S'Dornstar'
p419
sg72
I4
sg73
I1
sg74
I0
sg75
I0
sg76
S'Mercenary'
p420
sg78
I0
sg79
S'player'
p421
sg81
(I15
I18
tp422
sa(dp423
g7
S'None'
p424
sg9
(lp425
I70
aI5
aI50
aI40
aI35
aI20
aI10
aI45
aI0
aI0
asg11
I00
sg12
(lp426
(dp427
g15
Nsg16
I00
sg17
I00
sg18
I30
sg19
I00
sg20
S'Leech'
p428
sg22
S'Flux'
p429
sa(dp430
g15
Nsg16
I00
sg17
I00
sg18
I10
sg19
I00
sg20
g428
sg22
S'Scathe'
p431
sa(dp432
g15
Nsg16
I00
sg17
I00
sg18
I3
sg19
I00
sg20
g428
sg22
S'Spiritbane'
p433
sasg24
(lp434
I50
aI50
aI50
aI50
aI50
aI50
aI50
aI50
aI50
aI50
asg26
I22
sg27
(lp435
(I22
I0
tp436
a(I1
I0
tp437
a(I10
I0
tp438
a(I8
I0
tp439
a(I5
I2
tp440
a(I0
I0
tp441
a(I2
I0
tp442
a(I7
I0
tp443
a(I7
I0
tp444
a(I4
I0
tp445
asg39
S'0'
sg40
S'A scheming diplomat from the Confederacy.'
p446
sg42
g43
((ltRp447
sg47
(lp448
(dp449
g50
Nsg51
Nsg52
Nsg53
(lp450
sg55
Nsg56
Nsg57
Nsg22
S'Hex'
p451
sa(dp452
g50
Nsg51
Nsg52
Nsg53
(lp453
sg55
Nsg56
Nsg57
Nsg22
S'fSpeed +2'
p454
sasg59
(dp455
g61
I0
sg62
I0
sg63
I0
ssg64
I00
sg65
g66
sg67
g428
sg68
(lp456
I0
aI0
aI0
aI0
aI0
aI0
aI36
asg70
S'Leech'
p457
sg72
I5
sg73
I1
sg74
I5
sg75
I0
sg76
S'Shaman'
p458
sg78
I0
sg79
S'player'
p459
sg81
(I9
I18
tp460
sa(dp461
g7
S'None'
p462
sg9
(lp463
I100
aI50
aI0
aI50
aI0
aI0
aI0
aI0
aI0
aI0
asg11
I00
sg12
(lp464
(dp465
g15
Nsg16
I00
sg17
I00
sg18
I20
sg19
I00
sg20
S'Sidney'
p466
sg22
S'Hand Axe'
p467
sa(dp468
g15
Nsg16
I00
sg17
I00
sg18
I45
sg19
I00
sg20
g466
sg22
S'Iron Axe'
p469
sasg24
(lp470
I50
aI50
aI50
aI50
aI50
aI50
aI50
aI50
aI50
aI50
asg26
I30
sg27
(lp471
(I30
I0
tp472
a(I12
I0
tp473
a(I0
I0
tp474
a(I5
I0
tp475
a(I5
I0
tp476
a(I0
I0
tp477
a(I10
I0
tp478
a(I5
I0
tp479
a(I11
I0
tp480
a(I5
I0
tp481
asg39
S'0'
sg40
S'A cruel Imperial lieutenant.'
p482
sg42
g43
((ltRp483
sg47
(lp484
(dp485
g50
Nsg51
Nsg52
Nsg53
(lp486
sg55
Nsg56
I0
sg57
Nsg22
g142
sasg59
(dp487
g61
I0
sg62
I0
sg63
I0
ssg64
I00
sg65
g66
sg67
g466
sg68
(lp488
I0
aI0
aI1
aI0
aI0
aI0
aI0
asg70
S'Sidney'
p489
sg72
I4
sg73
I4
sg74
I0
sg75
I0
sg76
S'Fighter'
p490
sg78
I0
sg79
S'enemy'
p491
sg81
(I12
I2
tp492
sa(dp493
g7
S'Attack'
p494
sg9
(lp495
I70
aI35
aI10
aI40
aI40
aI30
aI15
aI20
aI0
aI0
asg11
I00
sg12
(lp496
(dp497
g15
Nsg16
I00
sg17
I00
sg18
I46
sg19
I00
sg20
I101
sg22
S'Iron Sword'
p498
sasg24
(lp499
I50
aI50
aI50
aI50
aI50
aI50
aI50
aI50
aI50
aI50
asg26
I16
sg27
(lp500
(I16
I0
tp501
a(I4
I0
tp502
a(I1
I0
tp503
a(I9
I0
tp504
a(I9
I0
tp505
a(I0
I0
tp506
a(I2
I0
tp507
a(I0
I0
tp508
a(I8
I0
tp509
a(I5
I0
tp510
asg39
S'0'
sg40
S''
sg42
g43
((ltRp511
sg47
(lp512
(dp513
g50
Nsg51
Nsg52
Nsg53
(lp514
sg55
Nsg56
Nsg57
Nsg22
g58
sasg59
(dp515
g61
I0
sg62
I0
sg63
I0
ssg64
I00
sg65
S'Resistance'
p516
sg67
I101
sg68
(lp517
I1
aI0
aI0
aI0
aI0
aI0
aI0
asg70
S'Resistance'
p518
sg72
I0
sg73
I1
sg74
I0
sg75
I0
sg76
S'Myrmidon'
p519
sg78
I0
sg79
S'enemy'
p520
sg81
(I15
I12
tp521
sa(dp522
g7
S'Attack'
p523
sg9
(lp524
I80
aI40
aI15
aI40
aI32
aI30
aI18
aI20
aI0
aI0
asg11
I00
sg12
(lp525
(dp526
g15
Nsg16
I00
sg17
I00
sg18
I46
sg19
I00
sg20
I102
sg22
S'Iron Sword'
p527
sasg24
(lp528
I50
aI50
aI50
aI50
aI50
aI50
aI50
aI50
aI50
aI50
asg26
I18
sg27
(lp529
(I18
I0
tp530
a(I4
I0
tp531
a(I1
I0
tp532
a(I8
I0
tp533
a(I8
I0
tp534
a(I0
I0
tp535
a(I4
I0
tp536
a(I0
I0
tp537
a(I9
I0
tp538
a(I5
I0
tp539
asg39
S'0'
sg40
S''
sg42
g43
((ltRp540
sg47
(lp541
(dp542
g50
Nsg51
Nsg52
Nsg53
(lp543
sg55
Nsg56
Nsg57
Nsg22
g413
sasg59
(dp544
g61
I0
sg62
I0
sg63
I0
ssg64
I00
sg65
g516
sg67
I102
sg68
(lp545
I1
aI0
aI0
aI0
aI0
aI0
aI0
asg70
g518
sg72
I4
sg73
I1
sg74
I0
sg75
I0
sg76
S'Mercenary'
p546
sg78
I0
sg79
S'enemy'
p547
sg81
(I4
I15
tp548
sa(dp549
g7
S'Attack'
p550
sg9
(lp551
I80
aI40
aI15
aI40
aI32
aI30
aI18
aI20
aI0
aI0
asg11
I00
sg12
(lp552
(dp553
g15
Nsg16
I00
sg17
I00
sg18
I46
sg19
I00
sg20
I103
sg22
S'Iron Sword'
p554
sasg24
(lp555
I50
aI50
aI50
aI50
aI50
aI50
aI50
aI50
aI50
aI50
asg26
I18
sg27
(lp556
(I18
I0
tp557
a(I4
I0
tp558
a(I1
I0
tp559
a(I8
I0
tp560
a(I8
I0
tp561
a(I0
I0
tp562
a(I4
I0
tp563
a(I0
I0
tp564
a(I9
I0
tp565
a(I5
I0
tp566
asg39
S'0'
sg40
S''
sg42
g540
sg47
(lp567
(dp568
g50
Nsg51
Nsg52
Nsg53
(lp569
sg55
Nsg56
Nsg57
Nsg22
g413
sasg59
(dp570
g61
I0
sg62
I0
sg63
I0
ssg64
I00
sg65
g516
sg67
I103
sg68
(lp571
I1
aI0
aI0
aI0
aI0
aI0
aI0
asg70
g518
sg72
I4
sg73
I2
sg74
I0
sg75
I0
sg76
S'Mercenary'
p572
sg78
I0
sg79
S'enemy'
p573
sg81
Nsa(dp574
g7
S'Attack'
p575
sg9
(lp576
I70
aI35
aI10
aI40
aI40
aI30
aI15
aI20
aI0
aI0
asg11
I00
sg12
(lp577
(dp578
g15
Nsg16
I00
sg17
I00
sg18
I46
sg19
I00
sg20
I104
sg22
S'Iron Sword'
p579
sasg24
(lp580
I50
aI50
aI50
aI50
aI50
aI50
aI50
aI50
aI50
aI50
asg26
I16
sg27
(lp581
(I16
I0
tp582
a(I4
I0
tp583
a(I2
I0
tp584
a(I10
I0
tp585
a(I9
I0
tp586
a(I0
I0
tp587
a(I2
I0
tp588
a(I0
I0
tp589
a(I8
I0
tp590
a(I5
I0
tp591
asg39
S'0'
sg40
S''
sg42
g511
sg47
(lp592
(dp593
g50
Nsg51
Nsg52
Nsg53
(lp594
sg55
Nsg56
Nsg57
Nsg22
g58
sasg59
(dp595
g61
I0
sg62
I0
sg63
I0
ssg64
I00
sg65
g516
sg67
I104
sg68
(lp596
I1
aI0
aI0
aI0
aI0
aI0
aI0
asg70
g518
sg72
I0
sg73
I2
sg74
I0
sg75
I0
sg76
S'Myrmidon'
p597
sg78
I0
sg79
S'enemy'
p598
sg81
(I8
I13
tp599
sa(dp600
g7
S'Attack'
p601
sg9
(lp602
I80
aI50
aI15
aI30
aI20
aI25
aI12
aI15
aI0
aI0
asg11
I00
sg12
(lp603
(dp604
g15
Nsg16
I00
sg17
I00
sg18
I45
sg19
I00
sg20
I105
sg22
S'Iron Lance'
p605
sasg24
(lp606
I50
aI50
aI50
aI50
aI50
aI50
aI50
aI50
aI50
aI50
asg26
I20
sg27
(lp607
(I20
I0
tp608
a(I3
I0
tp609
a(I0
I0
tp610
a(I0
I0
tp611
a(I1
I0
tp612
a(I0
I0
tp613
a(I0
I0
tp614
a(I0
I0
tp615
a(I6
I0
tp616
a(I5
I0
tp617
asg39
S'0'
sg40
S''
sg42
g43
((ltRp618
sg47
(lp619
(dp620
g50
Nsg51
Nsg52
Nsg53
(lp621
sg55
Nsg56
Nsg57
Nsg22
g345
sasg59
(dp622
g61
I0
sg62
I0
sg63
I0
ssg64
I00
sg65
g516
sg67
I105
sg68
(lp623
I0
aI1
aI0
aI0
aI0
aI0
aI0
asg70
g518
sg72
I4
sg73
I1
sg74
I0
sg75
I0
sg76
S'Soldier'
p624
sg78
I0
sg79
S'enemy'
p625
sg81
(I9
I12
tp626
sa(dp627
g7
S'Attack'
p628
sg9
(lp629
I80
aI50
aI15
aI30
aI20
aI25
aI12
aI15
aI0
aI0
asg11
I00
sg12
(lp630
(dp631
g15
Nsg16
I00
sg17
I00
sg18
I45
sg19
I00
sg20
I106
sg22
S'Iron Lance'
p632
sasg24
(lp633
I50
aI50
aI50
aI50
aI50
aI50
aI50
aI50
aI50
aI50
asg26
I21
sg27
(lp634
(I21
I0
tp635
a(I4
I0
tp636
a(I0
I0
tp637
a(I1
I0
tp638
a(I1
I0
tp639
a(I1
I0
tp640
a(I0
I0
tp641
a(I0
I0
tp642
a(I6
I0
tp643
a(I5
I0
tp644
asg39
S'0'
sg40
S''
sg42
g618
sg47
(lp645
(dp646
g50
Nsg51
Nsg52
Nsg53
(lp647
sg55
Nsg56
Nsg57
Nsg22
g345
sasg59
(dp648
g61
I0
sg62
I0
sg63
I0
ssg64
I00
sg65
g516
sg67
I106
sg68
(lp649
I0
aI1
aI0
aI0
aI0
aI0
aI0
asg70
g518
sg72
I4
sg73
I2
sg74
I0
sg75
I0
sg76
S'Soldier'
p650
sg78
I0
sg79
S'enemy'
p651
sg81
(I16
I13
tp652
sa(dp653
g7
S'Attack'
p654
sg9
(lp655
I75
aI35
aI5
aI40
aI28
aI30
aI15
aI15
aI0
aI0
asg11
I00
sg12
(lp656
(dp657
g15
Nsg16
I00
sg17
I00
sg18
I46
sg19
I00
sg20
I107
sg22
S'Iron Sword'
p658
sa(dp659
g15
Nsg16
I00
sg17
I00
sg18
I45
sg19
I00
sg20
I107
sg22
S'Iron Lance'
p660
sasg24
(lp661
I50
aI50
aI50
aI50
aI50
aI50
aI50
aI50
aI50
aI50
asg26
I20
sg27
(lp662
(I20
I0
tp663
a(I5
I0
tp664
a(I0
I0
tp665
a(I2
I0
tp666
a(I5
I0
tp667
a(I0
I0
tp668
a(I6
I0
tp669
a(I0
I0
tp670
a(I9
I0
tp671
a(I7
I0
tp672
asg39
S'0'
sg40
S''
sg42
g43
((lp673
g241
atRp674
sg47
(lp675
(dp676
g50
Nsg51
Nsg52
Nsg53
(lp677
sg55
Nsg56
Nsg57
Nsg22
g246
sasg59
(dp678
g61
I0
sg62
I0
sg63
I0
ssg64
I00
sg65
g516
sg67
I107
sg68
(lp679
I1
aI1
aI0
aI0
aI0
aI0
aI0
asg70
g518
sg72
I2
sg73
I1
sg74
I0
sg75
I0
sg76
S'Cavalier'
p680
sg78
I0
sg79
S'enemy'
p681
sg81
(I7
I9
tp682
sa(dp683
g7
S'SoftGuard'
p684
sg9
(lp685
I80
aI40
aI15
aI30
aI15
aI25
aI28
aI20
aI0
aI0
asg11
I00
sg12
(lp686
(dp687
g15
Nsg16
I00
sg17
I00
sg18
I45
sg19
I00
sg20
I108
sg22
S'Iron Lance'
p688
sa(dp689
g15
Nsg16
I00
sg17
I01
sg18
I1
sg19
I00
sg20
I108
sg22
S'Skeleton Key'
p690
sasg24
(lp691
I50
aI50
aI50
aI50
aI50
aI50
aI50
aI50
aI50
aI50
asg26
I18
sg27
(lp692
(I18
I0
tp693
a(I6
I0
tp694
a(I1
I0
tp695
a(I2
I0
tp696
a(I0
I0
tp697
a(I0
I0
tp698
a(I10
I0
tp699
a(I1
I0
tp700
a(I13
I0
tp701
a(I4
I0
tp702
asg39
S'0'
sg40
S''
sg42
g43
((ltRp703
sg47
(lp704
(dp705
g50
Nsg51
Nsg52
Nsg53
(lp706
sg55
Nsg56
Nsg57
Nsg22
g312
sasg59
(dp707
g61
I0
sg62
I0
sg63
I0
ssg64
I00
sg65
g516
sg67
I108
sg68
(lp708
I0
aI1
aI0
aI0
aI0
aI0
aI0
asg70
g518
sg72
I1
sg73
I3
sg74
I0
sg75
I0
sg76
S'Knight'
p709
sg78
I0
sg79
S'enemy'
p710
sg81
(I12
I6
tp711
sa(dp712
g7
S'Attack'
p713
sg9
(lp714
I80
aI40
aI15
aI40
aI32
aI30
aI18
aI20
aI0
aI0
asg11
I00
sg12
(lp715
(dp716
g15
Nsg16
I00
sg17
I00
sg18
I45
sg19
I00
sg20
I109
sg22
S'Iron Lance'
p717
sasg24
(lp718
I50
aI50
aI50
aI50
aI50
aI50
aI50
aI50
aI50
aI50
asg26
I19
sg27
(lp719
(I19
I0
tp720
a(I4
I0
tp721
a(I1
I0
tp722
a(I9
I0
tp723
a(I8
I0
tp724
a(I0
I0
tp725
a(I4
I0
tp726
a(I0
I0
tp727
a(I9
I0
tp728
a(I5
I0
tp729
asg39
S'0'
sg40
S''
sg42
g43
((ltRp730
sg47
(lp731
(dp732
g50
Nsg51
Nsg52
Nsg53
(lp733
sg55
Nsg56
Nsg57
Nsg22
S'Fleet_of_Foot'
p734
sasg59
(dp735
g61
I0
sg62
I0
sg63
I0
ssg64
I00
sg65
g516
sg67
I109
sg68
(lp736
I0
aI1
aI0
aI0
aI0
aI0
aI0
asg70
g518
sg72
I0
sg73
I2
sg74
I0
sg75
I0
sg76
S'Skirmisher'
p737
sg78
I0
sg79
S'enemy'
p738
sg81
(I12
I7
tp739
sa(dp740
g7
S'Attack'
p741
sg9
(lp742
I85
aI55
aI15
aI35
aI30
aI15
aI15
aI15
aI0
aI0
asg11
I00
sg12
(lp743
(dp744
g15
Nsg16
I00
sg17
I00
sg18
I45
sg19
I00
sg20
I110
sg22
S'Iron Axe'
p745
sasg24
(lp746
I50
aI50
aI50
aI50
aI50
aI50
aI50
aI50
aI50
aI50
asg26
I21
sg27
(lp747
(I21
I0
tp748
a(I6
I0
tp749
a(I1
I0
tp750
a(I2
I0
tp751
a(I4
I0
tp752
a(I0
I0
tp753
a(I2
I0
tp754
a(I0
I0
tp755
a(I11
I0
tp756
a(I5
I0
tp757
asg39
S'0'
sg40
S''
sg42
g43
((ltRp758
sg47
(lp759
(dp760
g50
Nsg51
Nsg52
Nsg53
(lp761
sg55
Nsg56
I0
sg57
Nsg22
g142
sasg59
(dp762
g61
I0
sg62
I0
sg63
I0
ssg64
I00
sg65
g516
sg67
I110
sg68
(lp763
I0
aI0
aI1
aI0
aI0
aI0
aI0
asg70
g518
sg72
I4
sg73
I2
sg74
I0
sg75
I0
sg76
S'Fighter'
p764
sg78
I0
sg79
S'enemy'
p765
sg81
(I20
I7
tp766
sa(dp767
g7
S'Attack'
p768
sg9
(lp769
I80
aI40
aI15
aI40
aI32
aI30
aI18
aI20
aI0
aI0
asg11
I00
sg12
(lp770
(dp771
g15
Nsg16
I00
sg17
I00
sg18
I46
sg19
I00
sg20
I111
sg22
S'Iron Sword'
p772
sasg24
(lp773
I50
aI50
aI50
aI50
aI50
aI50
aI50
aI50
aI50
aI50
asg26
I18
sg27
(lp774
(I18
I0
tp775
a(I4
I0
tp776
a(I1
I0
tp777
a(I8
I0
tp778
a(I8
I0
tp779
a(I0
I0
tp780
a(I4
I0
tp781
a(I0
I0
tp782
a(I9
I0
tp783
a(I5
I0
tp784
asg39
S'0'
sg40
S''
sg42
g540
sg47
(lp785
(dp786
g50
Nsg51
Nsg52
Nsg53
(lp787
sg55
Nsg56
Nsg57
Nsg22
g413
sasg59
(dp788
g61
I0
sg62
I0
sg63
I0
ssg64
I00
sg65
g516
sg67
I111
sg68
(lp789
I1
aI0
aI0
aI0
aI0
aI0
aI0
asg70
g518
sg72
I4
sg73
I1
sg74
I0
sg75
I0
sg76
S'Mercenary'
p790
sg78
I0
sg79
S'enemy'
p791
sg81
(I4
I16
tp792
sa(dp793
g7
S'Attack'
p794
sg9
(lp795
I80
aI40
aI15
aI40
aI32
aI30
aI18
aI20
aI0
aI0
asg11
I00
sg12
(lp796
(dp797
g15
Nsg16
I00
sg17
I00
sg18
I46
sg19
I00
sg20
I112
sg22
S'Iron Sword'
p798
sasg24
(lp799
I50
aI50
aI50
aI50
aI50
aI50
aI50
aI50
aI50
aI50
asg26
I18
sg27
(lp800
(I18
I0
tp801
a(I4
I0
tp802
a(I1
I0
tp803
a(I8
I0
tp804
a(I8
I0
tp805
a(I0
I0
tp806
a(I4
I0
tp807
a(I0
I0
tp808
a(I9
I0
tp809
a(I5
I0
tp810
asg39
S'0'
sg40
S''
sg42
g540
sg47
(lp811
(dp812
g50
Nsg51
Nsg52
Nsg53
(lp813
sg55
Nsg56
Nsg57
Nsg22
g413
sasg59
(dp814
g61
I0
sg62
I0
sg63
I0
ssg64
I00
sg65
g516
sg67
I112
sg68
(lp815
I1
aI0
aI0
aI0
aI0
aI0
aI0
asg70
g518
sg72
I4
sg73
I1
sg74
I0
sg75
I0
sg76
S'Mercenary'
p816
sg78
I0
sg79
S'enemy'
p817
sg81
(I20
I15
tp818
sa(dp819
g7
S'Attack'
p820
sg9
(lp821
I80
aI40
aI15
aI40
aI32
aI30
aI18
aI20
aI0
aI0
asg11
I00
sg12
(lp822
(dp823
g15
Nsg16
I00
sg17
I00
sg18
I46
sg19
I00
sg20
I113
sg22
S'Iron Sword'
p824
sasg24
(lp825
I50
aI50
aI50
aI50
aI50
aI50
aI50
aI50
aI50
aI50
asg26
I18
sg27
(lp826
(I18
I0
tp827
a(I4
I0
tp828
a(I1
I0
tp829
a(I8
I0
tp830
a(I8
I0
tp831
a(I0
I0
tp832
a(I4
I0
tp833
a(I0
I0
tp834
a(I9
I0
tp835
a(I5
I0
tp836
asg39
S'0'
sg40
S''
sg42
g540
sg47
(lp837
(dp838
g50
Nsg51
Nsg52
Nsg53
(lp839
sg55
Nsg56
Nsg57
Nsg22
g413
sasg59
(dp840
g61
I0
sg62
I0
sg63
I0
ssg64
I00
sg65
g516
sg67
I113
sg68
(lp841
I1
aI0
aI0
aI0
aI0
aI0
aI0
asg70
g518
sg72
I4
sg73
I1
sg74
I0
sg75
I0
sg76
S'Mercenary'
p842
sg78
I0
sg79
S'enemy'
p843
sg81
(I20
I16
tp844
sa(dp845
g7
S'Attack'
p846
sg9
(lp847
I80
aI40
aI15
aI40
aI32
aI30
aI18
aI20
aI0
aI0
asg11
I00
sg12
(lp848
(dp849
g15
Nsg16
I00
sg17
I00
sg18
I46
sg19
I00
sg20
I114
sg22
S'Iron Sword'
p850
sasg24
(lp851
I50
aI50
aI50
aI50
aI50
aI50
aI50
aI50
aI50
aI50
asg26
I19
sg27
(lp852
(I19
I0
tp853
a(I4
I0
tp854
a(I1
I0
tp855
a(I8
I0
tp856
a(I8
I0
tp857
a(I0
I0
tp858
a(I5
I0
tp859
a(I0
I0
tp860
a(I9
I0
tp861
a(I5
I0
tp862
asg39
S'0'
sg40
S''
sg42
g540
sg47
(lp863
(dp864
g50
Nsg51
Nsg52
Nsg53
(lp865
sg55
Nsg56
Nsg57
Nsg22
g413
sasg59
(dp866
g61
I0
sg62
I0
sg63
I0
ssg64
I00
sg65
g516
sg67
I114
sg68
(lp867
I1
aI0
aI0
aI0
aI0
aI0
aI0
asg70
g518
sg72
I4
sg73
I2
sg74
I0
sg75
I0
sg76
S'Mercenary'
p868
sg78
I0
sg79
S'enemy'
p869
sg81
Nsa(dp870
g7
S'Attack'
p871
sg9
(lp872
I80
aI40
aI15
aI40
aI32
aI30
aI18
aI20
aI0
aI0
asg11
I00
sg12
(lp873
(dp874
g15
Nsg16
I00
sg17
I00
sg18
I46
sg19
I00
sg20
I115
sg22
S'Iron Sword'
p875
sasg24
(lp876
I50
aI50
aI50
aI50
aI50
aI50
aI50
aI50
aI50
aI50
asg26
I19
sg27
(lp877
(I19
I0
tp878
a(I4
I0
tp879
a(I1
I0
tp880
a(I8
I0
tp881
a(I9
I0
tp882
a(I1
I0
tp883
a(I4
I0
tp884
a(I0
I0
tp885
a(I9
I0
tp886
a(I5
I0
tp887
asg39
S'0'
sg40
S''
sg42
g540
sg47
(lp888
(dp889
g50
Nsg51
Nsg52
Nsg53
(lp890
sg55
Nsg56
Nsg57
Nsg22
g413
sasg59
(dp891
g61
I0
sg62
I0
sg63
I0
ssg64
I00
sg65
g516
sg67
I115
sg68
(lp892
I1
aI0
aI0
aI0
aI0
aI0
aI0
asg70
g518
sg72
I4
sg73
I2
sg74
I0
sg75
I0
sg76
S'Mercenary'
p893
sg78
I0
sg79
S'enemy'
p894
sg81
(I12
I11
tp895
sa(dp896
g7
S'Attack'
p897
sg9
(lp898
I80
aI40
aI15
aI40
aI32
aI30
aI18
aI20
aI0
aI0
asg11
I00
sg12
(lp899
(dp900
g15
Nsg16
I00
sg17
I00
sg18
I46
sg19
I00
sg20
I116
sg22
S'Iron Sword'
p901
sasg24
(lp902
I50
aI50
aI50
aI50
aI50
aI50
aI50
aI50
aI50
aI50
asg26
I19
sg27
(lp903
(I19
I0
tp904
a(I4
I0
tp905
a(I1
I0
tp906
a(I8
I0
tp907
a(I9
I0
tp908
a(I0
I0
tp909
a(I4
I0
tp910
a(I0
I0
tp911
a(I9
I0
tp912
a(I5
I0
tp913
asg39
S'0'
sg40
S''
sg42
g540
sg47
(lp914
(dp915
g50
Nsg51
Nsg52
Nsg53
(lp916
sg55
Nsg56
Nsg57
Nsg22
g413
sasg59
(dp917
g61
I0
sg62
I0
sg63
I0
ssg64
I00
sg65
g516
sg67
I116
sg68
(lp918
I1
aI0
aI0
aI0
aI0
aI0
aI0
asg70
g518
sg72
I4
sg73
I2
sg74
I0
sg75
I0
sg76
S'Mercenary'
p919
sg78
I0
sg79
S'enemy'
p920
sg81
(I12
I10
tp921
sa(dp922
g7
S'Attack'
p923
sg9
(lp924
I75
aI35
aI5
aI40
aI28
aI30
aI15
aI15
aI0
aI0
asg11
I00
sg12
(lp925
(dp926
g15
Nsg16
I00
sg17
I00
sg18
I46
sg19
I00
sg20
I117
sg22
S'Iron Sword'
p927
sa(dp928
g15
Nsg16
I00
sg17
I00
sg18
I45
sg19
I00
sg20
I117
sg22
S'Iron Lance'
p929
sasg24
(lp930
I50
aI50
aI50
aI50
aI50
aI50
aI50
aI50
aI50
aI50
asg26
I20
sg27
(lp931
(I20
I0
tp932
a(I5
I0
tp933
a(I0
I0
tp934
a(I2
I0
tp935
a(I5
I0
tp936
a(I0
I0
tp937
a(I6
I0
tp938
a(I0
I0
tp939
a(I9
I0
tp940
a(I7
I0
tp941
asg39
S'0'
sg40
S''
sg42
g674
sg47
(lp942
(dp943
g50
Nsg51
Nsg52
Nsg53
(lp944
sg55
Nsg56
Nsg57
Nsg22
g246
sasg59
(dp945
g61
I0
sg62
I0
sg63
I0
ssg64
I00
sg65
g516
sg67
I117
sg68
(lp946
I1
aI1
aI0
aI0
aI0
aI0
aI0
asg70
g518
sg72
I2
sg73
I1
sg74
I0
sg75
I0
sg76
S'Cavalier'
p947
sg78
I0
sg79
S'enemy'
p948
sg81
(I17
I9
tp949
sa(dp950
g7
S'Attack'
p951
sg9
(lp952
I85
aI55
aI15
aI35
aI30
aI15
aI15
aI15
aI0
aI0
asg11
I00
sg12
(lp953
(dp954
g15
Nsg16
I00
sg17
I00
sg18
I45
sg19
I00
sg20
I118
sg22
S'Iron Axe'
p955
sasg24
(lp956
I50
aI50
aI50
aI50
aI50
aI50
aI50
aI50
aI50
aI50
asg26
I21
sg27
(lp957
(I21
I0
tp958
a(I6
I0
tp959
a(I0
I0
tp960
a(I3
I0
tp961
a(I4
I0
tp962
a(I0
I0
tp963
a(I2
I0
tp964
a(I0
I0
tp965
a(I11
I0
tp966
a(I5
I0
tp967
asg39
S'0'
sg40
S''
sg42
g758
sg47
(lp968
(dp969
g50
Nsg51
Nsg52
Nsg53
(lp970
sg55
Nsg56
I0
sg57
Nsg22
g142
sasg59
(dp971
g61
I0
sg62
I0
sg63
I0
ssg64
I00
sg65
g516
sg67
I118
sg68
(lp972
I0
aI0
aI1
aI0
aI0
aI0
aI0
asg70
g518
sg72
I4
sg73
I2
sg74
I0
sg75
I0
sg76
S'Fighter'
p973
sg78
I0
sg79
S'enemy'
p974
sg81
(I4
I7
tp975
sa(dp976
g7
S'Attack'
p977
sg9
(lp978
I70
aI35
aI10
aI40
aI40
aI30
aI15
aI20
aI0
aI0
asg11
I00
sg12
(lp979
(dp980
g15
Nsg16
I00
sg17
I00
sg18
I46
sg19
I00
sg20
I119
sg22
S'Iron Sword'
p981
sasg24
(lp982
I50
aI50
aI50
aI50
aI50
aI50
aI50
aI50
aI50
aI50
asg26
I17
sg27
(lp983
(I17
I0
tp984
a(I4
I0
tp985
a(I1
I0
tp986
a(I9
I0
tp987
a(I9
I0
tp988
a(I0
I0
tp989
a(I2
I0
tp990
a(I0
I0
tp991
a(I8
I0
tp992
a(I5
I0
tp993
asg39
S'0'
sg40
S''
sg42
g511
sg47
(lp994
(dp995
g50
Nsg51
Nsg52
Nsg53
(lp996
sg55
Nsg56
Nsg57
Nsg22
g58
sasg59
(dp997
g61
I0
sg62
I0
sg63
I0
ssg64
I00
sg65
g516
sg67
I119
sg68
(lp998
I1
aI0
aI0
aI0
aI0
aI0
aI0
asg70
g518
sg72
I0
sg73
I2
sg74
I0
sg75
I0
sg76
S'Myrmidon'
p999
sg78
I0
sg79
S'enemy'
p1000
sg81
(I2
I9
tp1001
sa(dp1002
g7
S'Attack'
p1003
sg9
(lp1004
I80
aI50
aI15
aI30
aI20
aI25
aI12
aI15
aI0
aI0
asg11
I00
sg12
(lp1005
(dp1006
g15
Nsg16
I00
sg17
I00
sg18
I45
sg19
I00
sg20
I120
sg22
S'Iron Lance'
p1007
sasg24
(lp1008
I50
aI50
aI50
aI50
aI50
aI50
aI50
aI50
aI50
aI50
asg26
I21
sg27
(lp1009
(I21
I0
tp1010
a(I4
I0
tp1011
a(I0
I0
tp1012
a(I1
I0
tp1013
a(I1
I0
tp1014
a(I0
I0
tp1015
a(I0
I0
tp1016
a(I0
I0
tp1017
a(I6
I0
tp1018
a(I5
I0
tp1019
asg39
S'0'
sg40
S''
sg42
g618
sg47
(lp1020
(dp1021
g50
Nsg51
Nsg52
Nsg53
(lp1022
sg55
Nsg56
Nsg57
Nsg22
g345
sasg59
(dp1023
g61
I0
sg62
I0
sg63
I0
ssg64
I00
sg65
g516
sg67
I120
sg68
(lp1024
I0
aI1
aI0
aI0
aI0
aI0
aI0
asg70
g518
sg72
I4
sg73
I2
sg74
I0
sg75
I0
sg76
S'Soldier'
p1025
sg78
I0
sg79
S'enemy'
p1026
sg81
(I3
I9
tp1027
sa(dp1028
g7
S'Attack'
p1029
sg9
(lp1030
I80
aI50
aI15
aI30
aI20
aI25
aI12
aI15
aI0
aI0
asg11
I00
sg12
(lp1031
(dp1032
g15
Nsg16
I00
sg17
I00
sg18
I45
sg19
I00
sg20
I121
sg22
S'Iron Lance'
p1033
sasg24
(lp1034
I50
aI50
aI50
aI50
aI50
aI50
aI50
aI50
aI50
aI50
asg26
I20
sg27
(lp1035
(I20
I0
tp1036
a(I3
I0
tp1037
a(I0
I0
tp1038
a(I0
I0
tp1039
a(I1
I0
tp1040
a(I0
I0
tp1041
a(I0
I0
tp1042
a(I0
I0
tp1043
a(I6
I0
tp1044
a(I5
I0
tp1045
asg39
S'0'
sg40
S''
sg42
g618
sg47
(lp1046
(dp1047
g50
Nsg51
Nsg52
Nsg53
(lp1048
sg55
Nsg56
Nsg57
Nsg22
g345
sasg59
(dp1049
g61
I0
sg62
I0
sg63
I0
ssg64
I00
sg65
g516
sg67
I121
sg68
(lp1050
I0
aI1
aI0
aI0
aI0
aI0
aI0
asg70
g518
sg72
I4
sg73
I2
sg74
I0
sg75
I0
sg76
S'Soldier'
p1051
sg78
I0
sg79
S'enemy'
p1052
sg81
(I21
I9
tp1053
sa(dp1054
g7
S'Attack'
p1055
sg9
(lp1056
I70
aI35
aI10
aI40
aI40
aI30
aI15
aI20
aI0
aI0
asg11
I00
sg12
(lp1057
(dp1058
g15
Nsg16
I00
sg17
I00
sg18
I46
sg19
I00
sg20
I122
sg22
S'Iron Sword'
p1059
sasg24
(lp1060
I50
aI50
aI50
aI50
aI50
aI50
aI50
aI50
aI50
aI50
asg26
I16
sg27
(lp1061
(I16
I0
tp1062
a(I4
I0
tp1063
a(I1
I0
tp1064
a(I9
I0
tp1065
a(I9
I0
tp1066
a(I0
I0
tp1067
a(I2
I0
tp1068
a(I0
I0
tp1069
a(I8
I0
tp1070
a(I5
I0
tp1071
asg39
S'0'
sg40
S''
sg42
g511
sg47
(lp1072
(dp1073
g50
Nsg51
Nsg52
Nsg53
(lp1074
sg55
Nsg56
Nsg57
Nsg22
g58
sasg59
(dp1075
g61
I0
sg62
I0
sg63
I0
ssg64
I00
sg65
g516
sg67
I122
sg68
(lp1076
I1
aI0
aI0
aI0
aI0
aI0
aI0
asg70
g518
sg72
I0
sg73
I1
sg74
I0
sg75
I0
sg76
S'Myrmidon'
p1077
sg78
I0
sg79
S'enemy'
p1078
sg81
(I22
I9
tp1079
sa(dp1080
g7
S'Attack'
p1081
sg9
(lp1082
I70
aI35
aI10
aI40
aI40
aI30
aI15
aI20
aI0
aI0
asg11
I00
sg12
(lp1083
(dp1084
g15
Nsg16
I00
sg17
I00
sg18
I46
sg19
I00
sg20
I123
sg22
S'Iron Sword'
p1085
sasg24
(lp1086
I50
aI50
aI50
aI50
aI50
aI50
aI50
aI50
aI50
aI50
asg26
I16
sg27
(lp1087
(I16
I0
tp1088
a(I4
I0
tp1089
a(I1
I0
tp1090
a(I9
I0
tp1091
a(I9
I0
tp1092
a(I0
I0
tp1093
a(I2
I0
tp1094
a(I0
I0
tp1095
a(I8
I0
tp1096
a(I5
I0
tp1097
asg39
S'0'
sg40
S''
sg42
g511
sg47
(lp1098
(dp1099
g50
Nsg51
Nsg52
Nsg53
(lp1100
sg55
Nsg56
Nsg57
Nsg22
g58
sasg59
(dp1101
g61
I0
sg62
I0
sg63
I0
ssg64
I00
sg65
g516
sg67
I123
sg68
(lp1102
I1
aI0
aI0
aI0
aI0
aI0
aI0
asg70
g518
sg72
I0
sg73
I1
sg74
I0
sg75
I0
sg76
S'Myrmidon'
p1103
sg78
I0
sg79
S'enemy'
p1104
sg81
NsasS'convoy'
p1105
(lp1106
sS'allreinforcements'
p1107
(dp1108
sS'base_conversations'
p1109
ccollections
OrderedDict
p1110
((ltRp1111
sS'phase_music'
p1112
(S'Fire Emblem IfFates + Awakening BGM - Conquest (CalmAblaze Mix Extended)'
p1113
S'Battle (Enemy Phase) - Fire Emblem Heroes Music Extended'
p1114
Ntp1115
sS'playtime'
p1116
I38521
sS'message'
p1117
(lp1118
sS'unlocked_lore'
p1119
(lp1120
sS'statistics'
p1121
(lp1122
sS'market_items'
p1123
g43
((ltRp1124
sS'support'
p1125
NsS'objective'
p1126
(S'Defeat Boss'
p1127
S'Defeat Boss'
p1128
S'Lord dies,OR,Party size falls below 5. Currently {gameStateObj.get_total_party_members()}'
p1129
tp1130
sS'turncount'
p1131
I1
sS'map'
p1132
(dp1133
S'HP'
p1134
(lp1135
sS'command_list'
p1136
(lp1137
ssS'state_list'
p1138
((lp1139
S'free'
p1140
aS'status'
p1141
aS'phase_change'
p1142
a(lp1143
S'pop'
p1144
atp1145
sS'prefabs'
p1146
(dp1147
sS'level_constants'
p1148
ccollections
Counter
p1149
((dtRp1150
sS'phase_info'
p1151
(I0
I3
tp1152
sS'factions'
p1153
(dp1154
S'Empire'
p1155
(S'Empire'
S'Empire'
S''
tp1156
sS'Resistance'
p1157
(g518
g516
S''
tp1158
ssS'triggers'
p1159
(dp1160
sS'mode'
p1161
(dp1162
S'autolevel_enemies'
p1163
S'0'
sS'death'
p1164
I1
sg70
S'Hard'
p1165
sS'color'
p1166
S'Green'
p1167
sS'player_bases'
p1168
(lp1169
I0
aI0
aI0
aI0
aI0
aI0
aI0
aI0
aI0
aI0
asS'growths'
p1170
I0
sS'rng'
p1171
S'true_hit'
p1172
sS'autolevel_players'
p1173
S'0'
sS'enemy_growths'
p1174
(lp1175
I0
aI0
aI0
aI0
aI0
aI0
aI0
aI0
aI0
aI0
asS'truelevel_enemies'
p1176
S'0'
sS'player_growths'
p1177
(lp1178
I0
aI0
aI0
aI0
aI0
aI0
aI0
aI0
aI0
aI0
asS'enemy_bases'
p1179
(lp1180
I0
aI0
aI0
aI0
aI0
aI0
aI0
aI0
aI0
aI0
asS'id'
p1181
S'1'
sS'tutorial'
p1182
S'1'
ssS'game_constants'
p1183
g1149
((dp1184
S'money'
p1185
I0
sg73
S'DEBUG'
p1186
stRp1187
s.