(dp1
S'talk_options'
p2
(lp3
sS'allunits'
p4
(lp5
(dp6
S'ai'
p7
S'None'
p8
sS'growths'
p9
(lp10
I80
aI35
aI0
aI55
aI55
aI30
aI20
aI20
aI0
aI0
asS'dead'
p11
I00
sS'items'
p12
(lp13
(dp14
S'c_uses'
p15
NsS'locked'
p16
I00
sS'droppable'
p17
I00
sS'uses'
p18
I40
sS'event_combat'
p19
I00
sS'owner'
p20
S'Jaeger'
p21
sS'id'
p22
S'Iron Sword'
p23
sasS'growth_points'
p24
(lp25
I50
aI50
aI50
aI50
aI50
aI50
aI50
aI50
aI50
aI50
asS'currenthp'
p26
I16
sS'stats'
p27
(lp28
(I16
I0
tp29
a(I8
I0
tp30
a(I2
I0
tp31
a(I13
I0
tp32
a(I14
I0
tp33
a(I7
I0
tp34
a(I5
I0
tp35
a(I2
I0
tp36
a(I8
I0
tp37
a(I5
I0
tp38
asS'event_id'
p39
S'0'
sS'desc'
p40
S'A strong-hearted renegade who often acts before he thinks.'
p41
sS'tags'
p42
c__builtin__
set
p43
((lp44
S'Lord'
p45
atRp46
sS'status_effects'
p47
(lp48
(dp49
S'count'
p50
NsS'time_left'
p51
NsS'upkeep_sc_count'
p52
NsS'children'
p53
(lp54
sS'parent_id'
p55
NsS'charge'
p56
NsS'rhythm_sc_count'
p57
Nsg22
S'Riposte'
p58
sasS'records'
p59
(dp60
S'damage'
p61
I32
sS'kills'
p62
I2
sS'healing'
p63
I0
ssS'finished'
p64
I00
sS'faction_icon'
p65
S'Neutral'
p66
sS'u_id'
p67
g21
sS'wexp'
p68
(lp69
I12
aI0
aI0
aI0
aI0
aI0
aI0
asS'name'
p70
S'Jaeger'
p71
sS'movement_group'
p72
I0
sS'level'
p73
I1
sS'gender'
p74
I2
sS'TRV'
p75
I0
sS'klass'
p76
S'Myrmidon'
p77
sS'exp'
p78
I71
sS'team'
p79
S'player'
p80
sS'position'
p81
(I8
I9
tp82
sa(dp83
g7
S'None'
p84
sg9
(lp85
I50
aI15
aI60
aI25
aI40
aI60
aI15
aI55
aI0
aI0
asg11
I01
sg12
(lp86
(dp87
g15
Nsg16
I00
sg17
I00
sg18
I28
sg19
I00
sg20
S'NANC'
p88
sg22
S'Heal'
p89
sa(dp90
g15
Nsg16
I00
sg17
I00
sg18
I27
sg19
I00
sg20
g88
sg22
S'Glimmer'
p91
sasg24
(lp92
I50
aI50
aI50
aI50
aI50
aI50
aI50
aI50
aI50
aI50
asg26
I18
sg27
(lp93
(I18
I0
tp94
a(I0
I0
tp95
a(I2
I0
tp96
a(I4
I0
tp97
a(I8
I0
tp98
a(I6
I0
tp99
a(I2
I0
tp100
a(I6
I0
tp101
a(I4
I0
tp102
a(I5
I0
tp103
asg39
S'0'
sg40
S'A shy but kind-hearted young woman. Has an affinity with the spiritual.'
p104
sg42
g43
((ltRp105
sg47
(lp106
(dp107
g50
Nsg51
Nsg52
Nsg53
(lp108
sg55
Nsg56
Nsg57
Nsg22
S'Healtouch'
p109
sasg59
(dp110
g61
I8
sg62
I0
sg63
I19
ssg64
I00
sg65
g66
sg67
g88
sg68
(lp111
I0
aI0
aI0
aI0
aI6
aI0
aI0
asg70
S'NANC'
p112
sg72
I5
sg73
I1
sg74
I7
sg75
I0
sg76
S'Cleric'
p113
sg78
I34
sg79
S'player'
p114
sg81
Nsa(dp115
g7
S'None'
p116
sg9
(lp117
I80
aI65
aI5
aI40
aI20
aI40
aI25
aI15
aI0
aI0
asg11
I00
sg12
(lp118
(dp119
g15
Nsg16
I00
sg17
I00
sg18
I37
sg19
I00
sg20
S'Kenboslice'
p120
sg22
S'Iron Axe'
p121
sa(dp122
g15
Nsg16
I00
sg17
I00
sg18
I3
sg19
I00
sg20
g120
sg22
S'Vulnerary'
p123
sasg24
(lp124
I50
aI50
aI50
aI50
aI50
aI50
aI50
aI50
aI50
aI50
asg26
I15
sg27
(lp125
(I22
I0
tp126
a(I9
I0
tp127
a(I0
I0
tp128
a(I7
I0
tp129
a(I7
I0
tp130
a(I4
I0
tp131
a(I5
I0
tp132
a(I1
I0
tp133
a(I11
I0
tp134
a(I5
I0
tp135
asg39
S'0'
sg40
S'A jovial former sailor. Always ready for a new adventure.'
p136
sg42
g43
((ltRp137
sg47
(lp138
(dp139
g50
Nsg51
Nsg52
Nsg53
(lp140
sg55
Nsg56
I0
sg57
Nsg22
S'Cleave'
p141
sasg59
(dp142
g61
I58
sg62
I2
sg63
I0
ssg64
I00
sg65
g66
sg67
g120
sg68
(lp143
I0
aI0
aI23
aI0
aI0
aI0
aI0
asg70
S'Kenboslice'
p144
sg72
I4
sg73
I2
sg74
I0
sg75
I0
sg76
S'Fighter'
p145
sg78
I1
sg79
S'player'
p146
sg81
(I12
I8
tp147
sa(dp148
g7
S'None'
p149
sg9
(lp150
I55
aI45
aI25
aI50
aI60
aI50
aI15
aI35
aI0
aI0
asg11
I00
sg12
(lp151
(dp152
g15
Nsg16
I00
sg17
I00
sg18
I42
sg19
I00
sg20
S'Olive'
p153
sg22
S'Willow Bow'
p154
sa(dp155
g15
Nsg16
I00
sg17
I00
sg18
I3
sg19
I00
sg20
g153
sg22
S'Vulnerary'
p156
sasg24
(lp157
I50
aI50
aI50
aI50
aI50
aI50
aI50
aI50
aI50
aI50
asg26
I5
sg27
(lp158
(I17
I0
tp159
a(I4
I0
tp160
a(I2
I0
tp161
a(I5
I0
tp162
a(I6
I0
tp163
a(I4
I0
tp164
a(I3
I0
tp165
a(I2
I0
tp166
a(I7
I0
tp167
a(I5
I0
tp168
asg39
S'0'
sg40
S'A quiet archer most at home in the wilderness.'
p169
sg42
g43
((ltRp170
sg47
(lp171
(dp172
g50
Nsg51
Nsg52
Nsg53
(lp173
sg55
Nsg56
Nsg57
Nsg22
S'Prescience'
p174
sasg59
(dp175
g61
I14
sg62
I0
sg63
I0
ssg64
I00
sg65
g66
sg67
g153
sg68
(lp176
I0
aI0
aI0
aI19
aI0
aI0
aI0
asg70
S'Olive'
p177
sg72
I0
sg73
I1
sg74
I6
sg75
I0
sg76
S'Archer'
p178
sg78
I32
sg79
S'player'
p179
sg81
(I16
I10
tp180
sa(dp181
g7
S'None'
p182
sg9
(lp183
I55
aI45
aI30
aI50
aI60
aI50
aI15
aI35
aI0
aI0
asg11
I00
sg12
(lp184
(dp185
g15
Nsg16
I00
sg17
I00
sg18
I26
sg19
I00
sg20
S'Mama Coco'
p186
sg22
S'Fire'
p187
sa(dp188
g15
Nsg16
I00
sg17
I00
sg18
I3
sg19
I00
sg20
g186
sg22
S'Vulnerary'
p189
sasg24
(lp190
I50
aI50
aI50
aI50
aI50
aI50
aI50
aI50
aI50
aI50
asg26
I11
sg27
(lp191
(I17
I0
tp192
a(I1
I0
tp193
a(I6
I0
tp194
a(I6
I0
tp195
a(I7
I0
tp196
a(I8
I0
tp197
a(I3
I0
tp198
a(I5
I2
tp199
a(I5
I0
tp200
a(I5
I0
tp201
asg39
S'0'
sg40
S'A forthright but elegant and refined sorceress.'
p202
sg42
g43
((ltRp203
sg47
(lp204
(dp205
g50
Nsg51
Nsg52
Nsg53
(lp206
sg55
Nsg56
Nsg57
Nsg22
S'Resistance +2'
p207
sa(dp208
g50
Nsg51
Nsg52
Nsg53
(lp209
sg55
Nsg56
Nsg57
Nsg22
S'Focus'
p210
sasg59
(dp211
g61
I23
sg62
I2
sg63
I0
ssg64
I00
sg65
g66
sg67
g186
sg68
(lp212
I0
aI0
aI0
aI0
aI0
aI10
aI0
asg70
S'Mama Coco'
p213
sg72
I5
sg73
I1
sg74
I5
sg75
I0
sg76
S'Mage'
p214
sg78
I71
sg79
S'player'
p215
sg81
(I19
I10
tp216
sa(dp217
g7
S'None'
p218
sg9
(lp219
I80
aI40
aI5
aI40
aI50
aI40
aI25
aI20
aI0
aI0
asg11
I00
sg12
(lp220
(dp221
g15
Nsg16
I00
sg17
I00
sg18
I40
sg19
I00
sg20
S'Sergio'
p222
sg22
S'Iron Lance'
p223
sa(dp224
g15
Nsg16
I00
sg17
I00
sg18
I46
sg19
I00
sg20
g222
sg22
S'Iron Sword'
p225
sasg24
(lp226
I50
aI50
aI50
aI50
aI50
aI50
aI50
aI50
aI50
aI50
asg26
I20
sg27
(lp227
(I21
I0
tp228
a(I7
I0
tp229
a(I1
I0
tp230
a(I6
I0
tp231
a(I8
I0
tp232
a(I2
I0
tp233
a(I6
I0
tp234
a(I1
I0
tp235
a(I9
I0
tp236
a(I7
I0
tp237
asg39
S'0'
sg40
S"A disgraced Imperial knight now in Althea's service."
p238
sg42
g43
((lp239
S'Mounted'
p240
atRp241
sg47
(lp242
(dp243
g50
Nsg51
Nsg52
Nsg53
(lp244
sg55
Nsg56
Nsg57
Nsg22
S'Canto'
p245
sasg59
(dp246
g61
I49
sg62
I3
sg63
I0
ssg64
I00
sg65
g66
sg67
g222
sg68
(lp247
I11
aI21
aI0
aI0
aI0
aI0
aI0
asg70
S'Sergio'
p248
sg72
I2
sg73
I2
sg74
I0
sg75
I0
sg76
S'Cavalier'
p249
sg78
I10
sg79
S'player'
p250
sg81
(I6
I7
tp251
sa(dp252
g7
S'None'
p253
sg9
(lp254
I75
aI40
aI20
aI40
aI65
aI45
aI25
aI20
aI0
aI0
asg11
I00
sg12
(lp255
(dp256
g15
Nsg16
I00
sg17
I00
sg18
I41
sg19
I00
sg20
S'beautifulcody'
p257
sg22
S'Iron Sword'
p258
sa(dp259
g15
Nsg16
I00
sg17
I00
sg18
I3
sg19
I00
sg20
g257
sg22
S'Vulnerary'
p260
sasg24
(lp261
I50
aI50
aI50
aI50
aI50
aI50
aI50
aI50
aI50
aI50
asg26
I12
sg27
(lp262
(I18
I0
tp263
a(I4
I0
tp264
a(I2
I0
tp265
a(I4
I0
tp266
a(I10
I0
tp267
a(I8
I0
tp268
a(I3
I0
tp269
a(I1
I0
tp270
a(I6
I0
tp271
a(I6
I0
tp272
asg39
S'0'
sg40
S'An energetic thief with a kleptomanic streak.'
p273
sg42
g43
((ltRp274
sg47
(lp275
(dp276
g50
Nsg51
Nsg52
Nsg53
(lp277
sg55
Nsg56
Nsg57
Nsg22
S'Locktouch'
p278
sasg59
(dp279
g61
I25
sg62
I2
sg63
I0
ssg64
I00
sg65
g66
sg67
g257
sg68
(lp280
I20
aI0
aI0
aI0
aI0
aI0
aI0
asg70
S'beautifulcody'
p281
sg72
I0
sg73
I1
sg74
I5
sg75
I0
sg76
S'Thief'
p282
sg78
I80
sg79
S'player'
p283
sg81
(I12
I7
tp284
sa(dp285
g7
S'None'
p286
sg9
(lp287
I90
aI45
aI15
aI35
aI30
aI30
aI55
aI20
aI0
aI0
asg11
I00
sg12
(lp288
(dp289
g15
Nsg16
I00
sg17
I00
sg18
I42
sg19
I00
sg20
S'Sir Carter'
p290
sg22
S'Iron Lance'
p291
sa(dp292
g15
Nsg16
I00
sg17
I00
sg18
I3
sg19
I00
sg20
g290
sg22
S'Vulnerary'
p293
sasg24
(lp294
I50
aI50
aI50
aI50
aI50
aI50
aI50
aI50
aI50
aI50
asg26
I23
sg27
(lp295
(I25
I0
tp296
a(I9
I0
tp297
a(I0
I0
tp298
a(I6
I0
tp299
a(I3
I0
tp300
a(I3
I0
tp301
a(I9
I0
tp302
a(I3
I0
tp303
a(I13
I0
tp304
a(I4
I0
tp305
asg39
S'0'
sg40
S'An avid scholar. Interested in esoteric philosophy.'
p306
sg42
g43
((ltRp307
sg47
(lp308
(dp309
g50
Nsg51
Nsg52
Nsg53
(lp310
I113
aI112
aI108
asg55
Nsg56
Nsg57
Nsg22
S'Provoke'
p311
sasg59
(dp312
g61
I26
sg62
I0
sg63
I0
ssg64
I00
sg65
g66
sg67
g290
sg68
(lp313
I0
aI19
aI0
aI0
aI0
aI0
aI0
asg70
S'Sir Carter'
p314
sg72
I1
sg73
I1
sg74
I0
sg75
I0
sg76
S'Knight'
p315
sg78
I30
sg79
S'player'
p316
sg81
(I13
I7
tp317
sa(dp318
g7
S'None'
p319
sg9
(lp320
I80
aI45
aI15
aI35
aI25
aI25
aI45
aI30
aI0
aI0
asg11
I01
sg12
(lp321
(dp322
g15
Nsg16
I00
sg17
I00
sg18
I44
sg19
I00
sg20
S'Not Tracer'
p323
sg22
S'Iron Lance'
p324
sa(dp325
g15
Nsg16
I00
sg17
I00
sg18
I20
sg19
I00
sg20
g323
sg22
S'Javelin'
p326
sasg24
(lp327
I50
aI50
aI50
aI50
aI50
aI50
aI50
aI50
aI50
aI50
asg26
I22
sg27
(lp328
(I22
I0
tp329
a(I4
I0
tp330
a(I0
I0
tp331
a(I1
I0
tp332
a(I1
I0
tp333
a(I1
I0
tp334
a(I3
I0
tp335
a(I1
I0
tp336
a(I6
I0
tp337
a(I5
I0
tp338
asg39
S'0'
sg40
S'A moody, sarcastic soldier.'
p339
sg42
g43
((ltRp340
sg47
(lp341
(dp342
g50
Nsg51
Nsg52
Nsg53
(lp343
sg55
Nsg56
Nsg57
Nsg22
S'Synergy'
p344
sasg59
(dp345
g61
I8
sg62
I0
sg63
I0
ssg64
I00
sg65
g66
sg67
g323
sg68
(lp346
I0
aI22
aI0
aI0
aI0
aI0
aI0
asg70
S'Not Tracer'
p347
sg72
I4
sg73
I1
sg74
I5
sg75
I0
sg76
S'Soldier'
p348
sg78
I10
sg79
S'player'
p349
sg81
Nsa(dp350
g7
S'None'
p351
sg9
(lp352
I65
aI15
aI35
aI45
aI55
aI55
aI40
aI65
aI0
aI0
asg11
I00
sg12
(lp353
(dp354
g15
Nsg16
I00
sg17
I00
sg18
I13
sg19
I00
sg20
S'T Rob'
p355
sg22
S'Mend'
p356
sa(dp357
g15
Nsg16
I00
sg17
I00
sg18
I16
sg19
I00
sg20
g355
sg22
S'Shine'
p358
sa(dp359
g15
Nsg16
I00
sg17
I00
sg18
I9
sg19
I00
sg20
g355
sg22
S'Fortune'
p360
sasg24
(lp361
I50
aI50
aI50
aI50
aI50
aI50
aI50
aI50
aI50
aI50
asg26
I18
sg27
(lp362
(I18
I0
tp363
a(I3
I0
tp364
a(I7
I0
tp365
a(I8
I0
tp366
a(I10
I0
tp367
a(I8
I0
tp368
a(I4
I0
tp369
a(I8
I0
tp370
a(I4
I0
tp371
a(I5
I0
tp372
asg39
S'0'
sg40
S"The resistance's leader. Ambitious and inquisitive."
p373
sg42
g43
((ltRp374
sg47
(lp375
(dp376
g50
Nsg51
Nsg52
Nsg53
(lp377
sg55
Nsg56
Nsg57
Nsg22
S'Inspiration'
p378
sasg59
(dp379
g61
I48
sg62
I2
sg63
I29
ssg64
I00
sg65
g66
sg67
g355
sg68
(lp380
I0
aI0
aI0
aI0
aI38
aI0
aI0
asg70
S'T Rob'
p381
sg72
I5
sg73
I2
sg74
I0
sg75
I0
sg76
S'Tactician'
p382
sg78
I19
sg79
S'player'
p383
sg81
(I9
I12
tp384
sa(dp385
g7
S'None'
p386
sg9
(lp387
I90
aI45
aI5
aI40
aI30
aI30
aI35
aI25
aI0
aI0
asg11
I00
sg12
(lp388
(dp389
g15
Nsg16
I00
sg17
I00
sg18
I15
sg19
I00
sg20
S'Dornstar'
p390
sg22
S'Rusted Sword'
p391
sa(dp392
g15
Nsg16
I00
sg17
I00
sg18
I3
sg19
I00
sg20
g390
sg22
S'Vulnerary'
p393
sa(dp394
g15
Nsg16
I00
sg17
I00
sg18
I1
sg19
I00
sg20
g390
sg22
S'Skeleton Key'
p395
sasg24
(lp396
I50
aI50
aI50
aI50
aI50
aI50
aI50
aI50
aI50
aI50
asg26
I22
sg27
(lp397
(I20
I5
tp398
a(I9
I0
tp399
a(I0
I0
tp400
a(I11
I0
tp401
a(I9
I0
tp402
a(I4
I0
tp403
a(I5
I0
tp404
a(I2
I0
tp405
a(I9
I0
tp406
a(I5
I0
tp407
asg39
S'0'
sg40
S'A troubled wandererer with a mysterious past.'
p408
sg42
g43
((ltRp409
sg47
(lp410
(dp411
g50
Nsg51
Nsg52
Nsg53
(lp412
sg55
Nsg56
Nsg57
Nsg22
S'Initiative'
p413
sa(dp414
g50
Nsg51
Nsg52
Nsg53
(lp415
sg55
Nsg56
Nsg57
Nsg22
S'fMaximum HP +5'
p416
sasg59
(dp417
g61
I32
sg62
I2
sg63
I0
ssg64
I00
sg65
g66
sg67
g390
sg68
(lp418
I45
aI0
aI0
aI0
aI0
aI0
aI0
asg70
S'Dornstar'
p419
sg72
I4
sg73
I1
sg74
I0
sg75
I0
sg76
S'Mercenary'
p420
sg78
I71
sg79
S'player'
p421
sg81
(I16
I8
tp422
sa(dp423
g7
S'None'
p424
sg9
(lp425
I70
aI5
aI50
aI40
aI35
aI20
aI10
aI45
aI0
aI0
asg11
I00
sg12
(lp426
(dp427
g15
Nsg16
I00
sg17
I00
sg18
I8
sg19
I00
sg20
S'Leech'
p428
sg22
S'Scathe'
p429
sa(dp430
g15
Nsg16
I00
sg17
I00
sg18
I25
sg19
I00
sg20
g428
sg22
S'Flux'
p431
sa(dp432
g15
Nsg16
I00
sg17
I00
sg18
I3
sg19
I00
sg20
g428
sg22
S'Spiritbane'
p433
sasg24
(lp434
I50
aI50
aI50
aI50
aI50
aI50
aI50
aI50
aI50
aI50
asg26
I22
sg27
(lp435
(I23
I0
tp436
a(I1
I0
tp437
a(I10
I0
tp438
a(I9
I0
tp439
a(I5
I2
tp440
a(I0
I0
tp441
a(I2
I0
tp442
a(I7
I0
tp443
a(I7
I0
tp444
a(I4
I0
tp445
asg39
S'0'
sg40
S'A scheming diplomat from the Confederacy.'
p446
sg42
g43
((ltRp447
sg47
(lp448
(dp449
g50
Nsg51
Nsg52
Nsg53
(lp450
sg55
Nsg56
Nsg57
Nsg22
S'Hex'
p451
sa(dp452
g50
Nsg51
Nsg52
Nsg53
(lp453
sg55
Nsg56
Nsg57
Nsg22
S'fSpeed +2'
p454
sasg59
(dp455
g61
I53
sg62
I5
sg63
I0
ssg64
I00
sg65
g66
sg67
g428
sg68
(lp456
I0
aI0
aI0
aI0
aI0
aI0
aI42
asg70
S'Leech'
p457
sg72
I5
sg73
I2
sg74
I5
sg75
I0
sg76
S'Shaman'
p458
sg78
I60
sg79
S'player'
p459
sg81
(I16
I7
tp460
sa(dp461
g7
S'None'
p462
sg9
(lp463
I100
aI50
aI0
aI50
aI0
aI0
aI0
aI0
aI0
aI0
asg11
I00
sg12
(lp464
(dp465
g15
Nsg16
I00
sg17
I00
sg18
I20
sg19
I00
sg20
S'Sidney'
p466
sg22
S'Hand Axe'
p467
sa(dp468
g15
Nsg16
I00
sg17
I00
sg18
I45
sg19
I00
sg20
g466
sg22
S'Iron Axe'
p469
sasg24
(lp470
I50
aI50
aI50
aI50
aI50
aI50
aI50
aI50
aI50
aI50
asg26
I30
sg27
(lp471
(I30
I0
tp472
a(I12
I0
tp473
a(I0
I0
tp474
a(I5
I0
tp475
a(I5
I0
tp476
a(I0
I0
tp477
a(I5
I0
tp478
a(I2
I0
tp479
a(I11
I0
tp480
a(I5
I0
tp481
asg39
S'0'
sg40
S'A cruel Imperial lieutenant.'
p482
sg42
g43
((ltRp483
sg47
(lp484
(dp485
g50
Nsg51
Nsg52
Nsg53
(lp486
sg55
Nsg56
I0
sg57
Nsg22
g141
sasg59
(dp487
g61
I0
sg62
I0
sg63
I0
ssg64
I00
sg65
g66
sg67
g466
sg68
(lp488
I0
aI0
aI1
aI0
aI0
aI0
aI0
asg70
S'Sidney'
p489
sg72
I4
sg73
I4
sg74
I0
sg75
I0
sg76
S'Fighter'
p490
sg78
I0
sg79
S'enemy'
p491
sg81
(I12
I2
tp492
sa(dp493
g7
S'Attack'
p494
sg9
(lp495
I80
aI40
aI15
aI40
aI32
aI30
aI18
aI20
aI0
aI0
asg11
I00
sg12
(lp496
(dp497
g15
Nsg16
I00
sg17
I00
sg18
I46
sg19
I00
sg20
I103
sg22
S'Iron Sword'
p498
sasg24
(lp499
I50
aI50
aI50
aI50
aI50
aI50
aI50
aI50
aI50
aI50
asg26
I18
sg27
(lp500
(I18
I0
tp501
a(I4
I0
tp502
a(I1
I0
tp503
a(I8
I0
tp504
a(I8
I0
tp505
a(I0
I0
tp506
a(I4
I0
tp507
a(I0
I0
tp508
a(I9
I0
tp509
a(I5
I0
tp510
asg39
S'0'
sg40
S''
sg42
g43
((ltRp511
sg47
(lp512
(dp513
g50
Nsg51
Nsg52
Nsg53
(lp514
sg55
Nsg56
Nsg57
Nsg22
g413
sasg59
(dp515
g61
I0
sg62
I0
sg63
I0
ssg64
I00
sg65
S'Resistance'
p516
sg67
I103
sg68
(lp517
I1
aI0
aI0
aI0
aI0
aI0
aI0
asg70
S'Resistance'
p518
sg72
I4
sg73
I2
sg74
I0
sg75
I0
sg76
S'Mercenary'
p519
sg78
I0
sg79
S'enemy'
p520
sg81
Nsa(dp521
g7
S'Attack'
p522
sg9
(lp523
I80
aI40
aI15
aI40
aI32
aI30
aI18
aI20
aI0
aI0
asg11
I00
sg12
(lp524
(dp525
g15
Nsg16
I00
sg17
I00
sg18
I46
sg19
I00
sg20
I114
sg22
S'Iron Sword'
p526
sasg24
(lp527
I50
aI50
aI50
aI50
aI50
aI50
aI50
aI50
aI50
aI50
asg26
I19
sg27
(lp528
(I19
I0
tp529
a(I4
I0
tp530
a(I1
I0
tp531
a(I8
I0
tp532
a(I8
I0
tp533
a(I0
I0
tp534
a(I5
I0
tp535
a(I0
I0
tp536
a(I9
I0
tp537
a(I5
I0
tp538
asg39
S'0'
sg40
S''
sg42
g511
sg47
(lp539
(dp540
g50
Nsg51
Nsg52
Nsg53
(lp541
sg55
Nsg56
Nsg57
Nsg22
g413
sasg59
(dp542
g61
I0
sg62
I0
sg63
I0
ssg64
I00
sg65
g516
sg67
I114
sg68
(lp543
I1
aI0
aI0
aI0
aI0
aI0
aI0
asg70
g518
sg72
I4
sg73
I2
sg74
I0
sg75
I0
sg76
S'Mercenary'
p544
sg78
I0
sg79
S'enemy'
p545
sg81
NsasS'convoy'
p546
(lp547
sS'allreinforcements'
p548
(dp549
sS'base_conversations'
p550
ccollections
OrderedDict
p551
((ltRp552
sS'phase_music'
p553
(S'Fire Emblem IfFates + Awakening BGM - Conquest (CalmAblaze Mix Extended)'
p554
S'Battle (Enemy Phase) - Fire Emblem Heroes Music Extended'
p555
Ntp556
sS'playtime'
p557
I1228806
sS'message'
p558
(lp559
sS'unlocked_lore'
p560
(lp561
sS'statistics'
p562
(lp563
sS'market_items'
p564
g43
((ltRp565
sS'support'
p566
NsS'objective'
p567
(S'Defeat Boss'
p568
S'Defeat Boss'
p569
S'Lord dies,OR,Party size falls below 5. Currently {gameStateObj.get_total_party_members()}'
p570
tp571
sS'turncount'
p572
I7
sS'map'
p573
(dp574
S'HP'
p575
(lp576
sS'command_list'
p577
(lp578
ssS'state_list'
p579
((lp580
S'free'
p581
aS'status'
p582
aS'phase_change'
p583
a(lp584
S'pop'
p585
atp586
sS'prefabs'
p587
(dp588
sS'level_constants'
p589
ccollections
Counter
p590
((dtRp591
sS'phase_info'
p592
(I0
I1
tp593
sS'factions'
p594
(dp595
S'Empire'
p596
(S'Empire'
S'Empire'
S''
tp597
sS'Resistance'
p598
(g518
g516
S''
tp599
ssS'triggers'
p600
(dp601
sS'mode'
p602
(dp603
S'autolevel_enemies'
p604
S'0'
sS'death'
p605
I1
sg70
S'Hard'
p606
sS'color'
p607
S'Green'
p608
sS'player_bases'
p609
(lp610
I0
aI0
aI0
aI0
aI0
aI0
aI0
aI0
aI0
aI0
asS'growths'
p611
I0
sS'rng'
p612
S'true_hit'
p613
sS'autolevel_players'
p614
S'0'
sS'enemy_growths'
p615
(lp616
I0
aI0
aI0
aI0
aI0
aI0
aI0
aI0
aI0
aI0
asS'truelevel_enemies'
p617
S'0'
sS'player_growths'
p618
(lp619
I0
aI0
aI0
aI0
aI0
aI0
aI0
aI0
aI0
aI0
asS'enemy_bases'
p620
(lp621
I0
aI0
aI0
aI0
aI0
aI0
aI0
aI0
aI0
aI0
asS'id'
p622
S'1'
sS'tutorial'
p623
S'1'
ssS'game_constants'
p624
g590
((dp625
S'money'
p626
I0
sg73
S'DEBUG'
p627
stRp628
s.