(dp1
S'kind'
p2
S'EnemyTurnChange 5'
p3
sS'mode_id'
p4
S'1'
sS'name'
p5
S'Example Name'
p6
sS'realtime'
p7
F1543462537.313
sS'version'
p8
S'0.8.3'
p9
sS'playtime'
p10
I1082352
sS'save_slot'
p11
S'DEBUG'
p12
s.