(dp1
S'talk_options'
p2
(lp3
sS'allunits'
p4
(lp5
(dp6
S'ai'
p7
S'None'
p8
sS'growths'
p9
(lp10
I80
aI35
aI0
aI55
aI55
aI30
aI20
aI20
aI0
aI0
asS'dead'
p11
I00
sS'items'
p12
(lp13
(dp14
S'c_uses'
p15
NsS'locked'
p16
I00
sS'droppable'
p17
I00
sS'uses'
p18
I41
sS'event_combat'
p19
I00
sS'owner'
p20
S'Jaeger'
p21
sS'id'
p22
S'Iron Sword'
p23
sasS'growth_points'
p24
(lp25
I50
aI50
aI50
aI50
aI50
aI50
aI50
aI50
aI50
aI50
asS'currenthp'
p26
I3
sS'stats'
p27
(lp28
(I16
I0
tp29
a(I8
I0
tp30
a(I2
I0
tp31
a(I13
I0
tp32
a(I14
I0
tp33
a(I7
I0
tp34
a(I5
I0
tp35
a(I2
I0
tp36
a(I8
I0
tp37
a(I5
I0
tp38
asS'event_id'
p39
S'0'
sS'desc'
p40
S'A strong-hearted renegade who often acts before he thinks.'
p41
sS'tags'
p42
c__builtin__
set
p43
((lp44
S'Lord'
p45
atRp46
sS'status_effects'
p47
(lp48
(dp49
S'count'
p50
NsS'time_left'
p51
NsS'upkeep_sc_count'
p52
NsS'children'
p53
(lp54
sS'parent_id'
p55
NsS'charge'
p56
NsS'rhythm_sc_count'
p57
Nsg22
S'Riposte'
p58
sa(dp59
g50
Nsg51
I1
sg52
Nsg53
(lp60
sg55
S'T Rob'
p61
sg56
Nsg57
Nsg22
S'Fortune'
p62
sasS'records'
p63
(dp64
S'damage'
p65
I31
sS'kills'
p66
I1
sS'healing'
p67
I0
ssS'finished'
p68
I00
sS'faction_icon'
p69
S'Neutral'
p70
sS'u_id'
p71
g21
sS'wexp'
p72
(lp73
I11
aI0
aI0
aI0
aI0
aI0
aI0
asS'name'
p74
S'Jaeger'
p75
sS'movement_group'
p76
I0
sS'level'
p77
I1
sS'gender'
p78
I2
sS'TRV'
p79
I0
sS'klass'
p80
S'Myrmidon'
p81
sS'exp'
p82
I41
sS'team'
p83
S'player'
p84
sS'position'
p85
(I9
I13
tp86
sa(dp87
g7
S'None'
p88
sg9
(lp89
I50
aI15
aI60
aI25
aI40
aI60
aI15
aI55
aI0
aI0
asg11
I01
sg12
(lp90
(dp91
g15
Nsg16
I00
sg17
I00
sg18
I28
sg19
I00
sg20
S'NANC'
p92
sg22
S'Heal'
p93
sa(dp94
g15
Nsg16
I00
sg17
I00
sg18
I27
sg19
I00
sg20
g92
sg22
S'Glimmer'
p95
sasg24
(lp96
I50
aI50
aI50
aI50
aI50
aI50
aI50
aI50
aI50
aI50
asg26
I18
sg27
(lp97
(I18
I0
tp98
a(I0
I0
tp99
a(I2
I0
tp100
a(I4
I0
tp101
a(I8
I0
tp102
a(I6
I0
tp103
a(I2
I0
tp104
a(I6
I0
tp105
a(I4
I0
tp106
a(I5
I0
tp107
asg39
S'0'
sg40
S'A shy but kind-hearted young woman. Has an affinity with the spiritual.'
p108
sg42
g43
((ltRp109
sg47
(lp110
(dp111
g50
Nsg51
Nsg52
Nsg53
(lp112
sg55
Nsg56
Nsg57
Nsg22
S'Healtouch'
p113
sasg63
(dp114
g65
I8
sg66
I0
sg67
I19
ssg68
I00
sg69
g70
sg71
g92
sg72
(lp115
I0
aI0
aI0
aI0
aI6
aI0
aI0
asg74
S'NANC'
p116
sg76
I5
sg77
I1
sg78
I7
sg79
I0
sg80
S'Cleric'
p117
sg82
I34
sg83
S'player'
p118
sg85
Nsa(dp119
g7
S'None'
p120
sg9
(lp121
I80
aI65
aI5
aI40
aI20
aI40
aI25
aI15
aI0
aI0
asg11
I00
sg12
(lp122
(dp123
g15
Nsg16
I00
sg17
I00
sg18
I40
sg19
I00
sg20
S'Kenboslice'
p124
sg22
S'Iron Axe'
p125
sa(dp126
g15
Nsg16
I00
sg17
I00
sg18
I3
sg19
I00
sg20
g124
sg22
S'Vulnerary'
p127
sasg24
(lp128
I50
aI50
aI50
aI50
aI50
aI50
aI50
aI50
aI50
aI50
asg26
I20
sg27
(lp129
(I21
I0
tp130
a(I8
I0
tp131
a(I0
I0
tp132
a(I7
I0
tp133
a(I7
I0
tp134
a(I3
I0
tp135
a(I5
I0
tp136
a(I1
I0
tp137
a(I11
I0
tp138
a(I5
I0
tp139
asg39
S'0'
sg40
S'A jovial former sailor. Always ready for a new adventure.'
p140
sg42
g43
((lp141
S'ActiveSkillCharged'
p142
atRp143
sg47
(lp144
(dp145
g50
Nsg51
Nsg52
Nsg53
(lp146
sg55
Nsg56
I15
sg57
Nsg22
S'Cleave'
p147
sasg63
(dp148
g65
I36
sg66
I2
sg67
I0
ssg68
I00
sg69
g70
sg71
g124
sg72
(lp149
I0
aI0
aI20
aI0
aI0
aI0
aI0
asg74
S'Kenboslice'
p150
sg76
I4
sg77
I1
sg78
I0
sg79
I0
sg80
S'Fighter'
p151
sg82
I71
sg83
S'player'
p152
sg85
(I8
I14
tp153
sa(dp154
g7
S'None'
p155
sg9
(lp156
I55
aI45
aI25
aI50
aI60
aI50
aI15
aI35
aI0
aI0
asg11
I00
sg12
(lp157
(dp158
g15
Nsg16
I00
sg17
I00
sg18
I43
sg19
I00
sg20
S'Olive'
p159
sg22
S'Willow Bow'
p160
sa(dp161
g15
Nsg16
I00
sg17
I00
sg18
I3
sg19
I00
sg20
g159
sg22
S'Vulnerary'
p162
sasg24
(lp163
I50
aI50
aI50
aI50
aI50
aI50
aI50
aI50
aI50
aI50
asg26
I11
sg27
(lp164
(I17
I0
tp165
a(I4
I0
tp166
a(I2
I0
tp167
a(I5
I0
tp168
a(I6
I0
tp169
a(I4
I0
tp170
a(I3
I0
tp171
a(I2
I0
tp172
a(I7
I0
tp173
a(I5
I0
tp174
asg39
S'0'
sg40
S'A quiet archer most at home in the wilderness.'
p175
sg42
g43
((ltRp176
sg47
(lp177
(dp178
g50
Nsg51
Nsg52
Nsg53
(lp179
sg55
Nsg56
Nsg57
Nsg22
S'Prescience'
p180
sasg63
(dp181
g65
I9
sg66
I0
sg67
I0
ssg68
I00
sg69
g70
sg71
g159
sg72
(lp182
I0
aI0
aI0
aI18
aI0
aI0
aI0
asg74
S'Olive'
p183
sg76
I0
sg77
I1
sg78
I6
sg79
I0
sg80
S'Archer'
p184
sg82
I21
sg83
S'player'
p185
sg85
(I16
I12
tp186
sa(dp187
g7
S'None'
p188
sg9
(lp189
I55
aI45
aI30
aI50
aI60
aI50
aI15
aI35
aI0
aI0
asg11
I00
sg12
(lp190
(dp191
g15
Nsg16
I00
sg17
I00
sg18
I26
sg19
I00
sg20
S'Mama Coco'
p192
sg22
S'Fire'
p193
sa(dp194
g15
Nsg16
I00
sg17
I00
sg18
I3
sg19
I00
sg20
g192
sg22
S'Vulnerary'
p195
sasg24
(lp196
I50
aI50
aI50
aI50
aI50
aI50
aI50
aI50
aI50
aI50
asg26
I11
sg27
(lp197
(I17
I0
tp198
a(I1
I0
tp199
a(I6
I0
tp200
a(I6
I0
tp201
a(I7
I0
tp202
a(I8
I0
tp203
a(I3
I0
tp204
a(I5
I2
tp205
a(I5
I0
tp206
a(I5
I0
tp207
asg39
S'0'
sg40
S'A forthright but elegant and refined sorceress.'
p208
sg42
g43
((ltRp209
sg47
(lp210
(dp211
g50
Nsg51
Nsg52
Nsg53
(lp212
sg55
Nsg56
Nsg57
Nsg22
S'Resistance +2'
p213
sa(dp214
g50
Nsg51
Nsg52
Nsg53
(lp215
sg55
Nsg56
Nsg57
Nsg22
S'Focus'
p216
sasg63
(dp217
g65
I23
sg66
I2
sg67
I0
ssg68
I00
sg69
g70
sg71
g192
sg72
(lp218
I0
aI0
aI0
aI0
aI0
aI10
aI0
asg74
S'Mama Coco'
p219
sg76
I5
sg77
I1
sg78
I5
sg79
I0
sg80
S'Mage'
p220
sg82
I71
sg83
S'player'
p221
sg85
(I21
I16
tp222
sa(dp223
g7
S'None'
p224
sg9
(lp225
I80
aI40
aI5
aI40
aI50
aI40
aI25
aI20
aI0
aI0
asg11
I00
sg12
(lp226
(dp227
g15
Nsg16
I00
sg17
I00
sg18
I42
sg19
I00
sg20
S'Sergio'
p228
sg22
S'Iron Lance'
p229
sa(dp230
g15
Nsg16
I00
sg17
I00
sg18
I46
sg19
I00
sg20
g228
sg22
S'Iron Sword'
p231
sasg24
(lp232
I50
aI50
aI50
aI50
aI50
aI50
aI50
aI50
aI50
aI50
asg26
I15
sg27
(lp233
(I20
I0
tp234
a(I7
I0
tp235
a(I1
I0
tp236
a(I5
I0
tp237
a(I7
I0
tp238
a(I2
I0
tp239
a(I6
I0
tp240
a(I1
I0
tp241
a(I9
I0
tp242
a(I7
I0
tp243
asg39
S'0'
sg40
S"A disgraced Imperial knight now in Althea's service."
p244
sg42
g43
((lp245
S'Mounted'
p246
atRp247
sg47
(lp248
(dp249
g50
Nsg51
Nsg52
Nsg53
(lp250
sg55
Nsg56
Nsg57
Nsg22
S'Canto'
p251
sasg63
(dp252
g65
I29
sg66
I1
sg67
I0
ssg68
I00
sg69
g70
sg71
g228
sg72
(lp253
I11
aI19
aI0
aI0
aI0
aI0
aI0
asg74
S'Sergio'
p254
sg76
I2
sg77
I1
sg78
I0
sg79
I0
sg80
S'Cavalier'
p255
sg82
I50
sg83
S'player'
p256
sg85
(I7
I15
tp257
sa(dp258
g7
S'None'
p259
sg9
(lp260
I75
aI40
aI20
aI40
aI65
aI45
aI25
aI20
aI0
aI0
asg11
I00
sg12
(lp261
(dp262
g15
Nsg16
I00
sg17
I00
sg18
I44
sg19
I00
sg20
S'beautifulcody'
p263
sg22
S'Iron Sword'
p264
sa(dp265
g15
Nsg16
I00
sg17
I00
sg18
I3
sg19
I00
sg20
g263
sg22
S'Vulnerary'
p266
sasg24
(lp267
I50
aI50
aI50
aI50
aI50
aI50
aI50
aI50
aI50
aI50
asg26
I12
sg27
(lp268
(I18
I0
tp269
a(I4
I0
tp270
a(I2
I0
tp271
a(I4
I0
tp272
a(I10
I0
tp273
a(I8
I0
tp274
a(I3
I0
tp275
a(I1
I0
tp276
a(I6
I0
tp277
a(I6
I0
tp278
asg39
S'0'
sg40
S'An energetic thief with a kleptomanic streak.'
p279
sg42
g43
((ltRp280
sg47
(lp281
(dp282
g50
Nsg51
Nsg52
Nsg53
(lp283
sg55
Nsg56
Nsg57
Nsg22
S'Locktouch'
p284
sasg63
(dp285
g65
I9
sg66
I1
sg67
I0
ssg68
I00
sg69
g70
sg71
g263
sg72
(lp286
I18
aI0
aI0
aI0
aI0
aI0
aI0
asg74
S'beautifulcody'
p287
sg76
I0
sg77
I1
sg78
I5
sg79
I0
sg80
S'Thief'
p288
sg82
I40
sg83
S'player'
p289
sg85
(I7
I17
tp290
sa(dp291
g7
S'None'
p292
sg9
(lp293
I90
aI45
aI15
aI35
aI30
aI30
aI55
aI20
aI0
aI0
asg11
I00
sg12
(lp294
(dp295
g15
Nsg16
I00
sg17
I00
sg18
I43
sg19
I00
sg20
S'Sir Carter'
p296
sg22
S'Iron Lance'
p297
sa(dp298
g15
Nsg16
I00
sg17
I00
sg18
I3
sg19
I00
sg20
g296
sg22
S'Vulnerary'
p299
sasg24
(lp300
I50
aI50
aI50
aI50
aI50
aI50
aI50
aI50
aI50
aI50
asg26
I25
sg27
(lp301
(I25
I0
tp302
a(I9
I0
tp303
a(I0
I0
tp304
a(I6
I0
tp305
a(I3
I0
tp306
a(I3
I0
tp307
a(I9
I0
tp308
a(I3
I0
tp309
a(I13
I0
tp310
a(I4
I0
tp311
asg39
S'0'
sg40
S'An avid scholar. Interested in esoteric philosophy.'
p312
sg42
g43
((ltRp313
sg47
(lp314
(dp315
g50
Nsg51
Nsg52
Nsg53
(lp316
I113
aI112
asg55
Nsg56
Nsg57
Nsg22
S'Provoke'
p317
sasg63
(dp318
g65
I22
sg66
I0
sg67
I0
ssg68
I00
sg69
g70
sg71
g296
sg72
(lp319
I0
aI18
aI0
aI0
aI0
aI0
aI0
asg74
S'Sir Carter'
p320
sg76
I1
sg77
I1
sg78
I0
sg79
I0
sg80
S'Knight'
p321
sg82
I20
sg83
S'player'
p322
sg85
(I17
I14
tp323
sa(dp324
g7
S'None'
p325
sg9
(lp326
I80
aI45
aI15
aI35
aI25
aI25
aI45
aI30
aI0
aI0
asg11
I01
sg12
(lp327
(dp328
g15
Nsg16
I00
sg17
I00
sg18
I44
sg19
I00
sg20
S'Not Tracer'
p329
sg22
S'Iron Lance'
p330
sa(dp331
g15
Nsg16
I00
sg17
I00
sg18
I20
sg19
I00
sg20
g329
sg22
S'Javelin'
p332
sasg24
(lp333
I50
aI50
aI50
aI50
aI50
aI50
aI50
aI50
aI50
aI50
asg26
I22
sg27
(lp334
(I22
I0
tp335
a(I4
I0
tp336
a(I0
I0
tp337
a(I1
I0
tp338
a(I1
I0
tp339
a(I1
I0
tp340
a(I3
I0
tp341
a(I1
I0
tp342
a(I6
I0
tp343
a(I5
I0
tp344
asg39
S'0'
sg40
S'A moody, sarcastic soldier.'
p345
sg42
g43
((ltRp346
sg47
(lp347
(dp348
g50
Nsg51
Nsg52
Nsg53
(lp349
sg55
Nsg56
Nsg57
Nsg22
S'Synergy'
p350
sasg63
(dp351
g65
I8
sg66
I0
sg67
I0
ssg68
I00
sg69
g70
sg71
g329
sg72
(lp352
I0
aI22
aI0
aI0
aI0
aI0
aI0
asg74
S'Not Tracer'
p353
sg76
I4
sg77
I1
sg78
I5
sg79
I0
sg80
S'Soldier'
p354
sg82
I10
sg83
S'player'
p355
sg85
Nsa(dp356
g7
S'None'
p357
sg9
(lp358
I65
aI15
aI35
aI45
aI55
aI55
aI40
aI65
aI0
aI0
asg11
I00
sg12
(lp359
(dp360
g15
Nsg16
I00
sg17
I00
sg18
I9
sg19
I00
sg20
g61
sg22
S'Fortune'
p361
sa(dp362
g15
Nsg16
I00
sg17
I00
sg18
I15
sg19
I00
sg20
g61
sg22
S'Mend'
p363
sa(dp364
g15
Nsg16
I00
sg17
I00
sg18
I16
sg19
I00
sg20
g61
sg22
S'Shine'
p365
sasg24
(lp366
I50
aI50
aI50
aI50
aI50
aI50
aI50
aI50
aI50
aI50
asg26
I13
sg27
(lp367
(I18
I0
tp368
a(I3
I0
tp369
a(I7
I0
tp370
a(I8
I0
tp371
a(I9
I0
tp372
a(I7
I0
tp373
a(I3
I0
tp374
a(I7
I0
tp375
a(I4
I0
tp376
a(I5
I0
tp377
asg39
S'0'
sg40
S"The resistance's leader. Ambitious and inquisitive."
p378
sg42
g43
((ltRp379
sg47
(lp380
(dp381
g50
Nsg51
Nsg52
Nsg53
(lp382
sg55
Nsg56
Nsg57
Nsg22
S'Inspiration'
p383
sasg63
(dp384
g65
I48
sg66
I2
sg67
I0
ssg68
I00
sg69
g70
sg71
g61
sg72
(lp385
I0
aI0
aI0
aI0
aI36
aI0
aI0
asg74
S'T Rob'
p386
sg76
I5
sg77
I1
sg78
I0
sg79
I0
sg80
S'Tactician'
p387
sg82
I95
sg83
S'player'
p388
sg85
(I11
I15
tp389
sa(dp390
g7
S'None'
p391
sg9
(lp392
I90
aI45
aI5
aI40
aI30
aI30
aI35
aI25
aI0
aI0
asg11
I00
sg12
(lp393
(dp394
g15
Nsg16
I00
sg17
I00
sg18
I17
sg19
I00
sg20
S'Dornstar'
p395
sg22
S'Rusted Sword'
p396
sa(dp397
g15
Nsg16
I00
sg17
I00
sg18
I3
sg19
I00
sg20
g395
sg22
S'Vulnerary'
p398
sasg24
(lp399
I50
aI50
aI50
aI50
aI50
aI50
aI50
aI50
aI50
aI50
asg26
I22
sg27
(lp400
(I20
I5
tp401
a(I9
I0
tp402
a(I0
I0
tp403
a(I11
I0
tp404
a(I9
I0
tp405
a(I4
I0
tp406
a(I5
I0
tp407
a(I2
I0
tp408
a(I9
I0
tp409
a(I5
I0
tp410
asg39
S'0'
sg40
S'A troubled wandererer with a mysterious past.'
p411
sg42
g43
((ltRp412
sg47
(lp413
(dp414
g50
Nsg51
Nsg52
Nsg53
(lp415
sg55
Nsg56
Nsg57
Nsg22
S'Initiative'
p416
sa(dp417
g50
Nsg51
Nsg52
Nsg53
(lp418
sg55
Nsg56
Nsg57
Nsg22
S'fMaximum HP +5'
p419
sasg63
(dp420
g65
I11
sg66
I1
sg67
I0
ssg68
I00
sg69
g70
sg71
g395
sg72
(lp421
I44
aI0
aI0
aI0
aI0
aI0
aI0
asg74
S'Dornstar'
p422
sg76
I4
sg77
I1
sg78
I0
sg79
I0
sg80
S'Mercenary'
p423
sg82
I41
sg83
S'player'
p424
sg85
(I22
I12
tp425
sa(dp426
g7
S'None'
p427
sg9
(lp428
I70
aI5
aI50
aI40
aI35
aI20
aI10
aI45
aI0
aI0
asg11
I00
sg12
(lp429
(dp430
g15
Nsg16
I00
sg17
I00
sg18
I26
sg19
I00
sg20
S'Leech'
p431
sg22
S'Flux'
p432
sa(dp433
g15
Nsg16
I00
sg17
I00
sg18
I10
sg19
I00
sg20
g431
sg22
S'Scathe'
p434
sa(dp435
g15
Nsg16
I00
sg17
I00
sg18
I3
sg19
I00
sg20
g431
sg22
S'Spiritbane'
p436
sasg24
(lp437
I50
aI50
aI50
aI50
aI50
aI50
aI50
aI50
aI50
aI50
asg26
I22
sg27
(lp438
(I22
I0
tp439
a(I1
I0
tp440
a(I10
I0
tp441
a(I8
I0
tp442
a(I5
I2
tp443
a(I0
I0
tp444
a(I2
I0
tp445
a(I7
I0
tp446
a(I7
I0
tp447
a(I4
I0
tp448
asg39
S'0'
sg40
S'A scheming diplomat from the Confederacy.'
p449
sg42
g43
((ltRp450
sg47
(lp451
(dp452
g50
Nsg51
Nsg52
Nsg53
(lp453
sg55
Nsg56
Nsg57
Nsg22
S'Hex'
p454
sa(dp455
g50
Nsg51
Nsg52
Nsg53
(lp456
sg55
Nsg56
Nsg57
Nsg22
S'fSpeed +2'
p457
sasg63
(dp458
g65
I35
sg66
I3
sg67
I0
ssg68
I00
sg69
g70
sg71
g431
sg72
(lp459
I0
aI0
aI0
aI0
aI0
aI0
aI39
asg74
S'Leech'
p460
sg76
I5
sg77
I1
sg78
I5
sg79
I0
sg80
S'Shaman'
p461
sg82
I90
sg83
S'player'
p462
sg85
(I17
I15
tp463
sa(dp464
g7
S'None'
p465
sg9
(lp466
I100
aI50
aI0
aI50
aI0
aI0
aI0
aI0
aI0
aI0
asg11
I00
sg12
(lp467
(dp468
g15
Nsg16
I00
sg17
I00
sg18
I20
sg19
I00
sg20
S'Sidney'
p469
sg22
S'Hand Axe'
p470
sa(dp471
g15
Nsg16
I00
sg17
I00
sg18
I45
sg19
I00
sg20
g469
sg22
S'Iron Axe'
p472
sasg24
(lp473
I50
aI50
aI50
aI50
aI50
aI50
aI50
aI50
aI50
aI50
asg26
I30
sg27
(lp474
(I30
I0
tp475
a(I12
I0
tp476
a(I0
I0
tp477
a(I5
I0
tp478
a(I5
I0
tp479
a(I0
I0
tp480
a(I5
I0
tp481
a(I2
I0
tp482
a(I11
I0
tp483
a(I5
I0
tp484
asg39
S'0'
sg40
S'A cruel Imperial lieutenant.'
p485
sg42
g43
((ltRp486
sg47
(lp487
(dp488
g50
Nsg51
Nsg52
Nsg53
(lp489
sg55
Nsg56
I0
sg57
Nsg22
g147
sasg63
(dp490
g65
I0
sg66
I0
sg67
I0
ssg68
I00
sg69
g70
sg71
g469
sg72
(lp491
I0
aI0
aI1
aI0
aI0
aI0
aI0
asg74
S'Sidney'
p492
sg76
I4
sg77
I4
sg78
I0
sg79
I0
sg80
S'Fighter'
p493
sg82
I0
sg83
S'enemy'
p494
sg85
(I12
I2
tp495
sa(dp496
g7
S'Attack'
p497
sg9
(lp498
I80
aI40
aI15
aI40
aI32
aI30
aI18
aI20
aI0
aI0
asg11
I00
sg12
(lp499
(dp500
g15
Nsg16
I00
sg17
I00
sg18
I43
sg19
I00
sg20
I102
sg22
S'Iron Sword'
p501
sasg24
(lp502
I50
aI50
aI50
aI50
aI50
aI50
aI50
aI50
aI50
aI50
asg26
I10
sg27
(lp503
(I18
I0
tp504
a(I4
I0
tp505
a(I1
I0
tp506
a(I8
I0
tp507
a(I8
I0
tp508
a(I0
I0
tp509
a(I4
I0
tp510
a(I0
I0
tp511
a(I9
I0
tp512
a(I5
I0
tp513
asg39
S'0'
sg40
S''
sg42
g43
((ltRp514
sg47
(lp515
(dp516
g50
Nsg51
Nsg52
Nsg53
(lp517
sg55
Nsg56
Nsg57
Nsg22
g416
sa(dp518
g50
Nsg51
I2
sg52
Nsg53
(lp519
sg55
g92
sg56
Nsg57
Nsg22
S'Dazzle'
p520
sasg63
(dp521
g65
I0
sg66
I0
sg67
I0
ssg68
I00
sg69
S'Resistance'
p522
sg71
I102
sg72
(lp523
I1
aI0
aI0
aI0
aI0
aI0
aI0
asg74
S'Resistance'
p524
sg76
I4
sg77
I1
sg78
I0
sg79
I0
sg80
S'Mercenary'
p525
sg82
I0
sg83
S'enemy'
p526
sg85
(I9
I19
tp527
sa(dp528
g7
S'Attack'
p529
sg9
(lp530
I80
aI40
aI15
aI40
aI32
aI30
aI18
aI20
aI0
aI0
asg11
I00
sg12
(lp531
(dp532
g15
Nsg16
I00
sg17
I00
sg18
I46
sg19
I00
sg20
I103
sg22
S'Iron Sword'
p533
sasg24
(lp534
I50
aI50
aI50
aI50
aI50
aI50
aI50
aI50
aI50
aI50
asg26
I18
sg27
(lp535
(I18
I0
tp536
a(I4
I0
tp537
a(I1
I0
tp538
a(I8
I0
tp539
a(I8
I0
tp540
a(I0
I0
tp541
a(I4
I0
tp542
a(I0
I0
tp543
a(I9
I0
tp544
a(I5
I0
tp545
asg39
S'0'
sg40
S''
sg42
g514
sg47
(lp546
(dp547
g50
Nsg51
Nsg52
Nsg53
(lp548
sg55
Nsg56
Nsg57
Nsg22
g416
sasg63
(dp549
g65
I0
sg66
I0
sg67
I0
ssg68
I00
sg69
g522
sg71
I103
sg72
(lp550
I1
aI0
aI0
aI0
aI0
aI0
aI0
asg74
g524
sg76
I4
sg77
I2
sg78
I0
sg79
I0
sg80
S'Mercenary'
p551
sg82
I0
sg83
S'enemy'
p552
sg85
Nsa(dp553
g7
S'SoftGuard'
p554
sg9
(lp555
I80
aI40
aI15
aI30
aI15
aI25
aI28
aI20
aI0
aI0
asg11
I00
sg12
(lp556
(dp557
g15
Nsg16
I00
sg17
I00
sg18
I45
sg19
I00
sg20
I108
sg22
S'Iron Lance'
p558
sa(dp559
g15
Nsg16
I00
sg17
I01
sg18
I1
sg19
I00
sg20
I108
sg22
S'Skeleton Key'
p560
sasg24
(lp561
I50
aI50
aI50
aI50
aI50
aI50
aI50
aI50
aI50
aI50
asg26
I18
sg27
(lp562
(I18
I0
tp563
a(I6
I0
tp564
a(I1
I0
tp565
a(I2
I0
tp566
a(I0
I0
tp567
a(I0
I0
tp568
a(I10
I0
tp569
a(I1
I0
tp570
a(I13
I0
tp571
a(I4
I0
tp572
asg39
S'0'
sg40
S''
sg42
g43
((ltRp573
sg47
(lp574
(dp575
g50
Nsg51
Nsg52
Nsg53
(lp576
sg55
Nsg56
Nsg57
Nsg22
g317
sasg63
(dp577
g65
I0
sg66
I0
sg67
I0
ssg68
I00
sg69
g522
sg71
I108
sg72
(lp578
I0
aI1
aI0
aI0
aI0
aI0
aI0
asg74
g524
sg76
I1
sg77
I3
sg78
I0
sg79
I0
sg80
S'Knight'
p579
sg82
I0
sg83
S'enemy'
p580
sg85
(I12
I6
tp581
sa(dp582
g7
S'Attack'
p583
sg9
(lp584
I80
aI40
aI15
aI40
aI32
aI30
aI18
aI20
aI0
aI0
asg11
I00
sg12
(lp585
(dp586
g15
Nsg16
I00
sg17
I00
sg18
I45
sg19
I00
sg20
I109
sg22
S'Iron Lance'
p587
sasg24
(lp588
I50
aI50
aI50
aI50
aI50
aI50
aI50
aI50
aI50
aI50
asg26
I19
sg27
(lp589
(I19
I0
tp590
a(I4
I0
tp591
a(I1
I0
tp592
a(I9
I0
tp593
a(I8
I0
tp594
a(I0
I0
tp595
a(I4
I0
tp596
a(I0
I0
tp597
a(I9
I0
tp598
a(I5
I0
tp599
asg39
S'0'
sg40
S''
sg42
g43
((ltRp600
sg47
(lp601
(dp602
g50
Nsg51
Nsg52
Nsg53
(lp603
sg55
Nsg56
Nsg57
Nsg22
S'Fleet_of_Foot'
p604
sasg63
(dp605
g65
I0
sg66
I0
sg67
I0
ssg68
I00
sg69
g522
sg71
I109
sg72
(lp606
I0
aI1
aI0
aI0
aI0
aI0
aI0
asg74
g524
sg76
I0
sg77
I2
sg78
I0
sg79
I0
sg80
S'Skirmisher'
p607
sg82
I0
sg83
S'enemy'
p608
sg85
(I16
I8
tp609
sa(dp610
g7
S'Attack'
p611
sg9
(lp612
I85
aI55
aI15
aI35
aI30
aI15
aI15
aI15
aI0
aI0
asg11
I00
sg12
(lp613
(dp614
g15
Nsg16
I00
sg17
I00
sg18
I45
sg19
I00
sg20
I110
sg22
S'Iron Axe'
p615
sasg24
(lp616
I50
aI50
aI50
aI50
aI50
aI50
aI50
aI50
aI50
aI50
asg26
I21
sg27
(lp617
(I21
I0
tp618
a(I6
I0
tp619
a(I1
I0
tp620
a(I2
I0
tp621
a(I4
I0
tp622
a(I0
I0
tp623
a(I2
I0
tp624
a(I0
I0
tp625
a(I11
I0
tp626
a(I5
I0
tp627
asg39
S'0'
sg40
S''
sg42
g43
((ltRp628
sg47
(lp629
(dp630
g50
Nsg51
Nsg52
Nsg53
(lp631
sg55
Nsg56
I0
sg57
Nsg22
g147
sasg63
(dp632
g65
I0
sg66
I0
sg67
I0
ssg68
I00
sg69
g522
sg71
I110
sg72
(lp633
I0
aI0
aI1
aI0
aI0
aI0
aI0
asg74
g524
sg76
I4
sg77
I2
sg78
I0
sg79
I0
sg80
S'Fighter'
p634
sg82
I0
sg83
S'enemy'
p635
sg85
(I18
I10
tp636
sa(dp637
g7
S'Attack'
p638
sg9
(lp639
I80
aI40
aI15
aI40
aI32
aI30
aI18
aI20
aI0
aI0
asg11
I00
sg12
(lp640
(dp641
g15
Nsg16
I00
sg17
I00
sg18
I46
sg19
I00
sg20
I114
sg22
S'Iron Sword'
p642
sasg24
(lp643
I50
aI50
aI50
aI50
aI50
aI50
aI50
aI50
aI50
aI50
asg26
I19
sg27
(lp644
(I19
I0
tp645
a(I4
I0
tp646
a(I1
I0
tp647
a(I8
I0
tp648
a(I8
I0
tp649
a(I0
I0
tp650
a(I5
I0
tp651
a(I0
I0
tp652
a(I9
I0
tp653
a(I5
I0
tp654
asg39
S'0'
sg40
S''
sg42
g514
sg47
(lp655
(dp656
g50
Nsg51
Nsg52
Nsg53
(lp657
sg55
Nsg56
Nsg57
Nsg22
g416
sasg63
(dp658
g65
I0
sg66
I0
sg67
I0
ssg68
I00
sg69
g522
sg71
I114
sg72
(lp659
I1
aI0
aI0
aI0
aI0
aI0
aI0
asg74
g524
sg76
I4
sg77
I2
sg78
I0
sg79
I0
sg80
S'Mercenary'
p660
sg82
I0
sg83
S'enemy'
p661
sg85
Nsa(dp662
g7
S'Attack'
p663
sg9
(lp664
I80
aI40
aI15
aI40
aI32
aI30
aI18
aI20
aI0
aI0
asg11
I00
sg12
(lp665
(dp666
g15
Nsg16
I00
sg17
I00
sg18
I42
sg19
I00
sg20
I115
sg22
S'Iron Sword'
p667
sasg24
(lp668
I50
aI50
aI50
aI50
aI50
aI50
aI50
aI50
aI50
aI50
asg26
I1
sg27
(lp669
(I19
I0
tp670
a(I4
I0
tp671
a(I1
I0
tp672
a(I8
I0
tp673
a(I9
I0
tp674
a(I1
I0
tp675
a(I4
I0
tp676
a(I0
I0
tp677
a(I9
I0
tp678
a(I5
I0
tp679
asg39
S'0'
sg40
S''
sg42
g514
sg47
(lp680
(dp681
g50
Nsg51
Nsg52
Nsg53
(lp682
sg55
Nsg56
Nsg57
Nsg22
g416
sasg63
(dp683
g65
I0
sg66
I0
sg67
I0
ssg68
I00
sg69
g522
sg71
I115
sg72
(lp684
I1
aI0
aI0
aI0
aI0
aI0
aI0
asg74
g524
sg76
I4
sg77
I2
sg78
I0
sg79
I0
sg80
S'Mercenary'
p685
sg82
I0
sg83
S'enemy'
p686
sg85
(I10
I18
tp687
sa(dp688
g7
S'Attack'
p689
sg9
(lp690
I85
aI55
aI15
aI35
aI30
aI15
aI15
aI15
aI0
aI0
asg11
I00
sg12
(lp691
(dp692
g15
Nsg16
I00
sg17
I00
sg18
I45
sg19
I00
sg20
I118
sg22
S'Iron Axe'
p693
sasg24
(lp694
I50
aI50
aI50
aI50
aI50
aI50
aI50
aI50
aI50
aI50
asg26
I21
sg27
(lp695
(I21
I0
tp696
a(I6
I0
tp697
a(I0
I0
tp698
a(I3
I0
tp699
a(I4
I0
tp700
a(I0
I0
tp701
a(I2
I0
tp702
a(I0
I0
tp703
a(I11
I0
tp704
a(I5
I0
tp705
asg39
S'0'
sg40
S''
sg42
g628
sg47
(lp706
(dp707
g50
Nsg51
Nsg52
Nsg53
(lp708
sg55
Nsg56
I0
sg57
Nsg22
g147
sasg63
(dp709
g65
I0
sg66
I0
sg67
I0
ssg68
I00
sg69
g522
sg71
I118
sg72
(lp710
I0
aI0
aI1
aI0
aI0
aI0
aI0
asg74
g524
sg76
I4
sg77
I2
sg78
I0
sg79
I0
sg80
S'Fighter'
p711
sg82
I0
sg83
S'enemy'
p712
sg85
(I4
I7
tp713
sa(dp714
g7
S'Attack'
p715
sg9
(lp716
I70
aI35
aI10
aI40
aI40
aI30
aI15
aI20
aI0
aI0
asg11
I00
sg12
(lp717
(dp718
g15
Nsg16
I00
sg17
I00
sg18
I46
sg19
I00
sg20
I119
sg22
S'Iron Sword'
p719
sasg24
(lp720
I50
aI50
aI50
aI50
aI50
aI50
aI50
aI50
aI50
aI50
asg26
I17
sg27
(lp721
(I17
I0
tp722
a(I4
I0
tp723
a(I1
I0
tp724
a(I9
I0
tp725
a(I9
I0
tp726
a(I0
I0
tp727
a(I2
I0
tp728
a(I0
I0
tp729
a(I8
I0
tp730
a(I5
I0
tp731
asg39
S'0'
sg40
S''
sg42
g43
((ltRp732
sg47
(lp733
(dp734
g50
Nsg51
Nsg52
Nsg53
(lp735
sg55
Nsg56
Nsg57
Nsg22
g58
sasg63
(dp736
g65
I0
sg66
I0
sg67
I0
ssg68
I00
sg69
g522
sg71
I119
sg72
(lp737
I1
aI0
aI0
aI0
aI0
aI0
aI0
asg74
g524
sg76
I0
sg77
I2
sg78
I0
sg79
I0
sg80
S'Myrmidon'
p738
sg82
I0
sg83
S'enemy'
p739
sg85
(I2
I9
tp740
sasS'convoy'
p741
(lp742
sS'allreinforcements'
p743
(dp744
sS'base_conversations'
p745
ccollections
OrderedDict
p746
((ltRp747
sS'phase_music'
p748
(S'Fire Emblem IfFates + Awakening BGM - Conquest (CalmAblaze Mix Extended)'
p749
S'Battle (Enemy Phase) - Fire Emblem Heroes Music Extended'
p750
Ntp751
sS'playtime'
p752
I794353
sS'message'
p753
(lp754
sS'unlocked_lore'
p755
(lp756
sS'statistics'
p757
(lp758
sS'market_items'
p759
g43
((ltRp760
sS'support'
p761
NsS'objective'
p762
(S'Defeat Boss'
p763
S'Defeat Boss'
p764
S'Lord dies,OR,Party size falls below 5. Currently {gameStateObj.get_total_party_members()}'
p765
tp766
sS'turncount'
p767
I4
sS'map'
p768
(dp769
S'HP'
p770
(lp771
sS'command_list'
p772
(lp773
ssS'state_list'
p774
((lp775
S'free'
p776
aS'status'
p777
aS'phase_change'
p778
a(lp779
S'pop'
p780
atp781
sS'prefabs'
p782
(dp783
sS'level_constants'
p784
ccollections
Counter
p785
((dtRp786
sS'phase_info'
p787
(I0
I1
tp788
sS'factions'
p789
(dp790
S'Empire'
p791
(S'Empire'
S'Empire'
S''
tp792
sS'Resistance'
p793
(g524
g522
S''
tp794
ssS'triggers'
p795
(dp796
sS'mode'
p797
(dp798
S'autolevel_enemies'
p799
S'0'
sS'death'
p800
I1
sg74
S'Hard'
p801
sS'color'
p802
S'Green'
p803
sS'player_bases'
p804
(lp805
I0
aI0
aI0
aI0
aI0
aI0
aI0
aI0
aI0
aI0
asS'growths'
p806
I0
sS'rng'
p807
S'true_hit'
p808
sS'autolevel_players'
p809
S'0'
sS'enemy_growths'
p810
(lp811
I0
aI0
aI0
aI0
aI0
aI0
aI0
aI0
aI0
aI0
asS'truelevel_enemies'
p812
S'0'
sS'player_growths'
p813
(lp814
I0
aI0
aI0
aI0
aI0
aI0
aI0
aI0
aI0
aI0
asS'enemy_bases'
p815
(lp816
I0
aI0
aI0
aI0
aI0
aI0
aI0
aI0
aI0
aI0
asS'id'
p817
S'1'
sS'tutorial'
p818
S'1'
ssS'game_constants'
p819
g785
((dp820
S'money'
p821
I0
sg77
S'DEBUG'
p822
stRp823
s.