(dp1
S'kind'
p2
S'EnemyTurnChange 1'
p3
sS'mode_id'
p4
S'1'
sS'name'
p5
S'Fight the Resistance!'
p6
sS'realtime'
p7
F1543547931.806
sS'version'
p8
S'0.8.3'
p9
sS'playtime'
p10
I172402
sS'save_slot'
p11
S'DEBUG'
p12
s.