(dp1
S'talk_options'
p2
(lp3
sS'allunits'
p4
(lp5
(dp6
S'ai'
p7
S'None'
p8
sS'growths'
p9
(lp10
I80
aI35
aI0
aI55
aI55
aI30
aI20
aI20
aI0
aI0
asS'dead'
p11
I00
sS'items'
p12
(lp13
(dp14
S'c_uses'
p15
NsS'locked'
p16
I00
sS'droppable'
p17
I00
sS'uses'
p18
I46
sS'event_combat'
p19
I00
sS'owner'
p20
S'Jaeger'
p21
sS'id'
p22
S'Iron Sword'
p23
sasS'growth_points'
p24
(lp25
I50
aI50
aI50
aI50
aI50
aI50
aI50
aI50
aI50
aI50
asS'currenthp'
p26
I16
sS'stats'
p27
(lp28
(I16
I0
tp29
a(I8
I0
tp30
a(I2
I0
tp31
a(I13
I0
tp32
a(I14
I0
tp33
a(I7
I0
tp34
a(I5
I0
tp35
a(I2
I0
tp36
a(I8
I0
tp37
a(I5
I0
tp38
asS'event_id'
p39
S'0'
sS'desc'
p40
S'A strong-hearted renegade who often acts before he thinks.'
p41
sS'tags'
p42
c__builtin__
set
p43
((lp44
S'Lord'
p45
atRp46
sS'status_effects'
p47
(lp48
(dp49
S'count'
p50
NsS'time_left'
p51
NsS'upkeep_sc_count'
p52
NsS'children'
p53
(lp54
sS'parent_id'
p55
NsS'charge'
p56
NsS'rhythm_sc_count'
p57
Nsg22
S'Riposte'
p58
sasS'records'
p59
(dp60
S'damage'
p61
I0
sS'kills'
p62
I0
sS'healing'
p63
I0
ssS'finished'
p64
I00
sS'faction_icon'
p65
S'Neutral'
p66
sS'u_id'
p67
g21
sS'wexp'
p68
(lp69
I8
aI0
aI0
aI0
aI0
aI0
aI0
asS'name'
p70
S'Jaeger'
p71
sS'movement_group'
p72
I0
sS'level'
p73
I1
sS'gender'
p74
I2
sS'TRV'
p75
I0
sS'klass'
p76
S'Myrmidon'
p77
sS'exp'
p78
I0
sS'team'
p79
S'player'
p80
sS'position'
p81
(I10
I17
tp82
sa(dp83
g7
S'None'
p84
sg9
(lp85
I50
aI15
aI60
aI25
aI40
aI60
aI15
aI55
aI0
aI0
asg11
I00
sg12
(lp86
(dp87
g15
Nsg16
I00
sg17
I00
sg18
I30
sg19
I00
sg20
S'NANC'
p88
sg22
S'Glimmer'
p89
sa(dp90
g15
Nsg16
I00
sg17
I00
sg18
I30
sg19
I00
sg20
g88
sg22
S'Heal'
p91
sasg24
(lp92
I50
aI50
aI50
aI50
aI50
aI50
aI50
aI50
aI50
aI50
asg26
I18
sg27
(lp93
(I18
I0
tp94
a(I0
I0
tp95
a(I2
I0
tp96
a(I4
I0
tp97
a(I8
I0
tp98
a(I6
I0
tp99
a(I2
I0
tp100
a(I6
I0
tp101
a(I4
I0
tp102
a(I5
I0
tp103
asg39
S'0'
sg40
S'A shy but kind-hearted young woman. Has an affinity with the spiritual.'
p104
sg42
g43
((ltRp105
sg47
(lp106
(dp107
g50
Nsg51
Nsg52
Nsg53
(lp108
sg55
Nsg56
Nsg57
Nsg22
S'Healtouch'
p109
sasg59
(dp110
g61
I0
sg62
I0
sg63
I0
ssg64
I00
sg65
g66
sg67
g88
sg68
(lp111
I0
aI0
aI0
aI0
aI1
aI0
aI0
asg70
S'NANC'
p112
sg72
I5
sg73
I1
sg74
I7
sg75
I0
sg76
S'Cleric'
p113
sg78
I0
sg79
S'player'
p114
sg81
(I10
I19
tp115
sa(dp116
g7
S'None'
p117
sg9
(lp118
I80
aI65
aI5
aI40
aI20
aI40
aI25
aI15
aI0
aI0
asg11
I01
sg12
(lp119
(dp120
g15
Nsg16
I00
sg17
I00
sg18
I42
sg19
I00
sg20
S'Kenboslice'
p121
sg22
S'Iron Axe'
p122
sa(dp123
g15
Nsg16
I00
sg17
I00
sg18
I3
sg19
I00
sg20
g121
sg22
S'Vulnerary'
p124
sasg24
(lp125
I50
aI50
aI50
aI50
aI50
aI50
aI50
aI50
aI50
aI50
asg26
I21
sg27
(lp126
(I21
I0
tp127
a(I8
I0
tp128
a(I0
I0
tp129
a(I7
I0
tp130
a(I7
I0
tp131
a(I3
I0
tp132
a(I5
I0
tp133
a(I1
I0
tp134
a(I11
I0
tp135
a(I5
I0
tp136
asg39
S'0'
sg40
S'A jovial former sailor. Always ready for a new adventure.'
p137
sg42
g43
((ltRp138
sg47
(lp139
(dp140
g50
Nsg51
Nsg52
Nsg53
(lp141
sg55
Nsg56
I0
sg57
Nsg22
S'Cleave'
p142
sasg59
(dp143
g61
I31
sg62
I1
sg63
I0
ssg64
I00
sg65
g66
sg67
g121
sg68
(lp144
I0
aI0
aI18
aI0
aI0
aI0
aI0
asg70
S'Kenboslice'
p145
sg72
I4
sg73
I1
sg74
I0
sg75
I0
sg76
S'Fighter'
p146
sg78
I40
sg79
S'player'
p147
sg81
Nsa(dp148
g7
S'None'
p149
sg9
(lp150
I55
aI45
aI25
aI50
aI60
aI50
aI15
aI35
aI0
aI0
asg11
I00
sg12
(lp151
(dp152
g15
Nsg16
I00
sg17
I00
sg18
I44
sg19
I00
sg20
S'Olive'
p153
sg22
S'Willow Bow'
p154
sa(dp155
g15
Nsg16
I00
sg17
I00
sg18
I3
sg19
I00
sg20
g153
sg22
S'Vulnerary'
p156
sasg24
(lp157
I50
aI50
aI50
aI50
aI50
aI50
aI50
aI50
aI50
aI50
asg26
I17
sg27
(lp158
(I17
I0
tp159
a(I4
I0
tp160
a(I2
I0
tp161
a(I5
I0
tp162
a(I6
I0
tp163
a(I4
I0
tp164
a(I3
I0
tp165
a(I2
I0
tp166
a(I7
I0
tp167
a(I5
I0
tp168
asg39
S'0'
sg40
S'A quiet archer most at home in the wilderness.'
p169
sg42
g43
((ltRp170
sg47
(lp171
(dp172
g50
Nsg51
Nsg52
Nsg53
(lp173
sg55
Nsg56
Nsg57
Nsg22
S'Prescience'
p174
sasg59
(dp175
g61
I5
sg62
I0
sg63
I0
ssg64
I00
sg65
g66
sg67
g153
sg68
(lp176
I0
aI0
aI0
aI17
aI0
aI0
aI0
asg70
S'Olive'
p177
sg72
I0
sg73
I1
sg74
I6
sg75
I0
sg76
S'Archer'
p178
sg78
I11
sg79
S'player'
p179
sg81
(I18
I16
tp180
sa(dp181
g7
S'None'
p182
sg9
(lp183
I55
aI45
aI30
aI50
aI60
aI50
aI15
aI35
aI0
aI0
asg11
I00
sg12
(lp184
(dp185
g15
Nsg16
I00
sg17
I00
sg18
I28
sg19
I00
sg20
S'Mama Coco'
p186
sg22
S'Fire'
p187
sa(dp188
g15
Nsg16
I00
sg17
I00
sg18
I3
sg19
I00
sg20
g186
sg22
S'Vulnerary'
p189
sasg24
(lp190
I50
aI50
aI50
aI50
aI50
aI50
aI50
aI50
aI50
aI50
asg26
I17
sg27
(lp191
(I17
I0
tp192
a(I1
I0
tp193
a(I6
I0
tp194
a(I6
I0
tp195
a(I7
I0
tp196
a(I8
I0
tp197
a(I3
I0
tp198
a(I5
I2
tp199
a(I5
I0
tp200
a(I5
I0
tp201
asg39
S'0'
sg40
S'A forthright but elegant and refined sorceress.'
p202
sg42
g43
((ltRp203
sg47
(lp204
(dp205
g50
Nsg51
Nsg52
Nsg53
(lp206
sg55
Nsg56
Nsg57
Nsg22
S'Resistance +2'
p207
sa(dp208
g50
Nsg51
Nsg52
Nsg53
(lp209
sg55
Nsg56
Nsg57
Nsg22
S'Focus'
p210
sasg59
(dp211
g61
I20
sg62
I0
sg63
I0
ssg64
I00
sg65
g66
sg67
g186
sg68
(lp212
I0
aI0
aI0
aI0
aI0
aI7
aI0
asg70
S'Mama Coco'
p213
sg72
I5
sg73
I1
sg74
I5
sg75
I0
sg76
S'Mage'
p214
sg78
I10
sg79
S'player'
p215
sg81
(I16
I15
tp216
sa(dp217
g7
S'None'
p218
sg9
(lp219
I80
aI40
aI5
aI40
aI50
aI40
aI25
aI20
aI0
aI0
asg11
I00
sg12
(lp220
(dp221
g15
Nsg16
I00
sg17
I00
sg18
I45
sg19
I00
sg20
S'Sergio'
p222
sg22
S'Iron Lance'
p223
sa(dp224
g15
Nsg16
I00
sg17
I00
sg18
I46
sg19
I00
sg20
g222
sg22
S'Iron Sword'
p225
sasg24
(lp226
I50
aI50
aI50
aI50
aI50
aI50
aI50
aI50
aI50
aI50
asg26
I20
sg27
(lp227
(I20
I0
tp228
a(I7
I0
tp229
a(I1
I0
tp230
a(I5
I0
tp231
a(I7
I0
tp232
a(I2
I0
tp233
a(I6
I0
tp234
a(I1
I0
tp235
a(I9
I0
tp236
a(I7
I0
tp237
asg39
S'0'
sg40
S"A disgraced Imperial knight now in Althea's service."
p238
sg42
g43
((lp239
S'Mounted'
p240
atRp241
sg47
(lp242
(dp243
g50
Nsg51
Nsg52
Nsg53
(lp244
sg55
Nsg56
Nsg57
Nsg22
S'Canto'
p245
sasg59
(dp246
g61
I0
sg62
I0
sg63
I0
ssg64
I00
sg65
g66
sg67
g222
sg68
(lp247
I11
aI16
aI0
aI0
aI0
aI0
aI0
asg70
S'Sergio'
p248
sg72
I2
sg73
I1
sg74
I0
sg75
I0
sg76
S'Cavalier'
p249
sg78
I0
sg79
S'player'
p250
sg81
(I9
I16
tp251
sa(dp252
g7
S'None'
p253
sg9
(lp254
I75
aI40
aI20
aI40
aI65
aI45
aI25
aI20
aI0
aI0
asg11
I00
sg12
(lp255
(dp256
g15
Nsg16
I00
sg17
I00
sg18
I46
sg19
I00
sg20
S'beautifulcody'
p257
sg22
S'Iron Sword'
p258
sa(dp259
g15
Nsg16
I00
sg17
I00
sg18
I3
sg19
I00
sg20
g257
sg22
S'Vulnerary'
p260
sasg24
(lp261
I50
aI50
aI50
aI50
aI50
aI50
aI50
aI50
aI50
aI50
asg26
I18
sg27
(lp262
(I18
I0
tp263
a(I4
I0
tp264
a(I2
I0
tp265
a(I4
I0
tp266
a(I10
I0
tp267
a(I8
I0
tp268
a(I3
I0
tp269
a(I1
I0
tp270
a(I6
I0
tp271
a(I6
I0
tp272
asg39
S'0'
sg40
S'An energetic thief with a kleptomanic streak.'
p273
sg42
g43
((ltRp274
sg47
(lp275
(dp276
g50
Nsg51
Nsg52
Nsg53
(lp277
sg55
Nsg56
Nsg57
Nsg22
S'Locktouch'
p278
sasg59
(dp279
g61
I0
sg62
I0
sg63
I0
ssg64
I00
sg65
g66
sg67
g257
sg68
(lp280
I16
aI0
aI0
aI0
aI0
aI0
aI0
asg70
S'beautifulcody'
p281
sg72
I0
sg73
I1
sg74
I5
sg75
I0
sg76
S'Thief'
p282
sg78
I0
sg79
S'player'
p283
sg81
(I9
I19
tp284
sa(dp285
g7
S'None'
p286
sg9
(lp287
I90
aI45
aI15
aI35
aI30
aI30
aI55
aI20
aI0
aI0
asg11
I00
sg12
(lp288
(dp289
g15
Nsg16
I00
sg17
I00
sg18
I44
sg19
I00
sg20
S'Sir Carter'
p290
sg22
S'Iron Lance'
p291
sa(dp292
g15
Nsg16
I00
sg17
I00
sg18
I3
sg19
I00
sg20
g290
sg22
S'Vulnerary'
p293
sasg24
(lp294
I50
aI50
aI50
aI50
aI50
aI50
aI50
aI50
aI50
aI50
asg26
I25
sg27
(lp295
(I25
I0
tp296
a(I9
I0
tp297
a(I0
I0
tp298
a(I6
I0
tp299
a(I3
I0
tp300
a(I3
I0
tp301
a(I9
I0
tp302
a(I3
I0
tp303
a(I13
I0
tp304
a(I4
I0
tp305
asg39
S'0'
sg40
S'An avid scholar. Interested in esoteric philosophy.'
p306
sg42
g43
((ltRp307
sg47
(lp308
(dp309
g50
Nsg51
Nsg52
Nsg53
(lp310
I113
asg55
Nsg56
Nsg57
Nsg22
S'Provoke'
p311
sasg59
(dp312
g61
I11
sg62
I0
sg63
I0
ssg64
I00
sg65
g66
sg67
g290
sg68
(lp313
I0
aI17
aI0
aI0
aI0
aI0
aI0
asg70
S'Sir Carter'
p314
sg72
I1
sg73
I1
sg74
I0
sg75
I0
sg76
S'Knight'
p315
sg78
I10
sg79
S'player'
p316
sg81
(I19
I16
tp317
sa(dp318
g7
S'None'
p319
sg9
(lp320
I80
aI45
aI15
aI35
aI25
aI25
aI45
aI30
aI0
aI0
asg11
I00
sg12
(lp321
(dp322
g15
Nsg16
I00
sg17
I00
sg18
I43
sg19
I00
sg20
S'Not Tracer'
p323
sg22
S'Iron Lance'
p324
sa(dp325
g15
Nsg16
I00
sg17
I00
sg18
I20
sg19
I00
sg20
g323
sg22
S'Javelin'
p326
sasg24
(lp327
I50
aI50
aI50
aI50
aI50
aI50
aI50
aI50
aI50
aI50
asg26
I6
sg27
(lp328
(I22
I0
tp329
a(I4
I0
tp330
a(I0
I0
tp331
a(I1
I0
tp332
a(I1
I0
tp333
a(I1
I0
tp334
a(I3
I0
tp335
a(I1
I0
tp336
a(I6
I0
tp337
a(I5
I0
tp338
asg39
S'0'
sg40
S'A moody, sarcastic soldier.'
p339
sg42
g43
((ltRp340
sg47
(lp341
(dp342
g50
Nsg51
Nsg52
Nsg53
(lp343
sg55
Nsg56
Nsg57
Nsg22
S'Synergy'
p344
sasg59
(dp345
g61
I0
sg62
I0
sg63
I0
ssg64
I00
sg65
g66
sg67
g323
sg68
(lp346
I0
aI23
aI0
aI0
aI0
aI0
aI0
asg70
S'Not Tracer'
p347
sg72
I4
sg73
I1
sg74
I5
sg75
I0
sg76
S'Soldier'
p348
sg78
I2
sg79
S'player'
p349
sg81
(I7
I17
tp350
sa(dp351
g7
S'None'
p352
sg9
(lp353
I65
aI15
aI35
aI45
aI55
aI55
aI40
aI65
aI0
aI0
asg11
I00
sg12
(lp354
(dp355
g15
Nsg16
I00
sg17
I00
sg18
I17
sg19
I00
sg20
S'T Rob'
p356
sg22
S'Shine'
p357
sa(dp358
g15
Nsg16
I00
sg17
I00
sg18
I15
sg19
I00
sg20
g356
sg22
S'Mend'
p359
sa(dp360
g15
Nsg16
I00
sg17
I00
sg18
I10
sg19
I00
sg20
g356
sg22
S'Fortune'
p361
sasg24
(lp362
I50
aI50
aI50
aI50
aI50
aI50
aI50
aI50
aI50
aI50
asg26
I6
sg27
(lp363
(I18
I0
tp364
a(I3
I0
tp365
a(I7
I0
tp366
a(I8
I0
tp367
a(I9
I0
tp368
a(I7
I0
tp369
a(I3
I0
tp370
a(I7
I0
tp371
a(I4
I0
tp372
a(I5
I0
tp373
asg39
S'0'
sg40
S"The resistance's leader. Ambitious and inquisitive."
p374
sg42
g43
((ltRp375
sg47
(lp376
(dp377
g50
Nsg51
Nsg52
Nsg53
(lp378
sg55
Nsg56
Nsg57
Nsg22
S'Inspiration'
p379
sasg59
(dp380
g61
I23
sg62
I1
sg63
I0
ssg64
I00
sg65
g66
sg67
g356
sg68
(lp381
I0
aI0
aI0
aI0
aI34
aI0
aI0
asg70
S'T Rob'
p382
sg72
I5
sg73
I1
sg74
I0
sg75
I0
sg76
S'Tactician'
p383
sg78
I50
sg79
S'player'
p384
sg81
(I15
I14
tp385
sa(dp386
g7
S'None'
p387
sg9
(lp388
I90
aI45
aI5
aI40
aI30
aI30
aI35
aI25
aI0
aI0
asg11
I00
sg12
(lp389
(dp390
g15
Nsg16
I00
sg17
I00
sg18
I20
sg19
I00
sg20
S'Dornstar'
p391
sg22
S'Rusted Sword'
p392
sa(dp393
g15
Nsg16
I00
sg17
I00
sg18
I3
sg19
I00
sg20
g391
sg22
S'Vulnerary'
p394
sasg24
(lp395
I50
aI50
aI50
aI50
aI50
aI50
aI50
aI50
aI50
aI50
asg26
I25
sg27
(lp396
(I20
I5
tp397
a(I9
I0
tp398
a(I0
I0
tp399
a(I11
I0
tp400
a(I9
I0
tp401
a(I4
I0
tp402
a(I5
I0
tp403
a(I2
I0
tp404
a(I9
I0
tp405
a(I5
I0
tp406
asg39
S'0'
sg40
S'A troubled wandererer with a mysterious past.'
p407
sg42
g43
((ltRp408
sg47
(lp409
(dp410
g50
Nsg51
Nsg52
Nsg53
(lp411
sg55
Nsg56
Nsg57
Nsg22
S'Initiative'
p412
sa(dp413
g50
Nsg51
Nsg52
Nsg53
(lp414
sg55
Nsg56
Nsg57
Nsg22
S'fMaximum HP +5'
p415
sasg59
(dp416
g61
I0
sg62
I0
sg63
I0
ssg64
I00
sg65
g66
sg67
g391
sg68
(lp417
I41
aI0
aI0
aI0
aI0
aI0
aI0
asg70
S'Dornstar'
p418
sg72
I4
sg73
I1
sg74
I0
sg75
I0
sg76
S'Mercenary'
p419
sg78
I0
sg79
S'player'
p420
sg81
(I14
I15
tp421
sa(dp422
g7
S'None'
p423
sg9
(lp424
I70
aI5
aI50
aI40
aI35
aI20
aI10
aI45
aI0
aI0
asg11
I00
sg12
(lp425
(dp426
g15
Nsg16
I00
sg17
I00
sg18
I30
sg19
I00
sg20
S'Leech'
p427
sg22
S'Flux'
p428
sa(dp429
g15
Nsg16
I00
sg17
I00
sg18
I10
sg19
I00
sg20
g427
sg22
S'Scathe'
p430
sa(dp431
g15
Nsg16
I00
sg17
I00
sg18
I3
sg19
I00
sg20
g427
sg22
S'Spiritbane'
p432
sasg24
(lp433
I50
aI50
aI50
aI50
aI50
aI50
aI50
aI50
aI50
aI50
asg26
I22
sg27
(lp434
(I22
I0
tp435
a(I1
I0
tp436
a(I10
I0
tp437
a(I8
I0
tp438
a(I5
I2
tp439
a(I0
I0
tp440
a(I2
I0
tp441
a(I7
I0
tp442
a(I7
I0
tp443
a(I4
I0
tp444
asg39
S'0'
sg40
S'A scheming diplomat from the Confederacy.'
p445
sg42
g43
((ltRp446
sg47
(lp447
(dp448
g50
Nsg51
Nsg52
Nsg53
(lp449
sg55
Nsg56
Nsg57
Nsg22
S'Hex'
p450
sa(dp451
g50
Nsg51
Nsg52
Nsg53
(lp452
sg55
Nsg56
Nsg57
Nsg22
S'fSpeed +2'
p453
sasg59
(dp454
g61
I0
sg62
I0
sg63
I0
ssg64
I00
sg65
g66
sg67
g427
sg68
(lp455
I0
aI0
aI0
aI0
aI0
aI0
aI36
asg70
S'Leech'
p456
sg72
I5
sg73
I1
sg74
I5
sg75
I0
sg76
S'Shaman'
p457
sg78
I0
sg79
S'player'
p458
sg81
(I17
I17
tp459
sa(dp460
g7
S'None'
p461
sg9
(lp462
I100
aI50
aI0
aI50
aI0
aI0
aI0
aI0
aI0
aI0
asg11
I00
sg12
(lp463
(dp464
g15
Nsg16
I00
sg17
I00
sg18
I20
sg19
I00
sg20
S'Sidney'
p465
sg22
S'Hand Axe'
p466
sa(dp467
g15
Nsg16
I00
sg17
I00
sg18
I45
sg19
I00
sg20
g465
sg22
S'Iron Axe'
p468
sasg24
(lp469
I50
aI50
aI50
aI50
aI50
aI50
aI50
aI50
aI50
aI50
asg26
I30
sg27
(lp470
(I30
I0
tp471
a(I12
I0
tp472
a(I0
I0
tp473
a(I5
I0
tp474
a(I5
I0
tp475
a(I0
I0
tp476
a(I10
I0
tp477
a(I5
I0
tp478
a(I11
I0
tp479
a(I5
I0
tp480
asg39
S'0'
sg40
S'A cruel Imperial lieutenant.'
p481
sg42
g43
((ltRp482
sg47
(lp483
(dp484
g50
Nsg51
Nsg52
Nsg53
(lp485
sg55
Nsg56
I0
sg57
Nsg22
g142
sasg59
(dp486
g61
I0
sg62
I0
sg63
I0
ssg64
I00
sg65
g66
sg67
g465
sg68
(lp487
I0
aI0
aI1
aI0
aI0
aI0
aI0
asg70
S'Sidney'
p488
sg72
I4
sg73
I4
sg74
I0
sg75
I0
sg76
S'Fighter'
p489
sg78
I0
sg79
S'enemy'
p490
sg81
(I12
I2
tp491
sa(dp492
g7
S'Attack'
p493
sg9
(lp494
I70
aI35
aI10
aI40
aI40
aI30
aI15
aI20
aI0
aI0
asg11
I00
sg12
(lp495
(dp496
g15
Nsg16
I00
sg17
I00
sg18
I45
sg19
I00
sg20
I101
sg22
S'Iron Sword'
p497
sasg24
(lp498
I50
aI50
aI50
aI50
aI50
aI50
aI50
aI50
aI50
aI50
asg26
I5
sg27
(lp499
(I16
I0
tp500
a(I4
I0
tp501
a(I1
I0
tp502
a(I9
I0
tp503
a(I9
I0
tp504
a(I0
I0
tp505
a(I2
I0
tp506
a(I0
I0
tp507
a(I8
I0
tp508
a(I5
I0
tp509
asg39
S'0'
sg40
S''
sg42
g43
((ltRp510
sg47
(lp511
(dp512
g50
Nsg51
Nsg52
Nsg53
(lp513
sg55
Nsg56
Nsg57
Nsg22
g58
sasg59
(dp514
g61
I0
sg62
I0
sg63
I0
ssg64
I00
sg65
S'Resistance'
p515
sg67
I101
sg68
(lp516
I1
aI0
aI0
aI0
aI0
aI0
aI0
asg70
S'Resistance'
p517
sg72
I0
sg73
I1
sg74
I0
sg75
I0
sg76
S'Myrmidon'
p518
sg78
I0
sg79
S'enemy'
p519
sg81
(I15
I13
tp520
sa(dp521
g7
S'Attack'
p522
sg9
(lp523
I80
aI40
aI15
aI40
aI32
aI30
aI18
aI20
aI0
aI0
asg11
I00
sg12
(lp524
(dp525
g15
Nsg16
I00
sg17
I00
sg18
I44
sg19
I00
sg20
I102
sg22
S'Iron Sword'
p526
sasg24
(lp527
I50
aI50
aI50
aI50
aI50
aI50
aI50
aI50
aI50
aI50
asg26
I18
sg27
(lp528
(I18
I0
tp529
a(I4
I0
tp530
a(I1
I0
tp531
a(I8
I0
tp532
a(I8
I0
tp533
a(I0
I0
tp534
a(I4
I0
tp535
a(I0
I0
tp536
a(I9
I0
tp537
a(I5
I0
tp538
asg39
S'0'
sg40
S''
sg42
g43
((ltRp539
sg47
(lp540
(dp541
g50
Nsg51
Nsg52
Nsg53
(lp542
sg55
Nsg56
Nsg57
Nsg22
g412
sasg59
(dp543
g61
I0
sg62
I0
sg63
I0
ssg64
I00
sg65
g515
sg67
I102
sg68
(lp544
I1
aI0
aI0
aI0
aI0
aI0
aI0
asg70
g517
sg72
I4
sg73
I1
sg74
I0
sg75
I0
sg76
S'Mercenary'
p545
sg78
I0
sg79
S'enemy'
p546
sg81
(I7
I16
tp547
sa(dp548
g7
S'Attack'
p549
sg9
(lp550
I80
aI40
aI15
aI40
aI32
aI30
aI18
aI20
aI0
aI0
asg11
I00
sg12
(lp551
(dp552
g15
Nsg16
I00
sg17
I00
sg18
I46
sg19
I00
sg20
I103
sg22
S'Iron Sword'
p553
sasg24
(lp554
I50
aI50
aI50
aI50
aI50
aI50
aI50
aI50
aI50
aI50
asg26
I18
sg27
(lp555
(I18
I0
tp556
a(I4
I0
tp557
a(I1
I0
tp558
a(I8
I0
tp559
a(I8
I0
tp560
a(I0
I0
tp561
a(I4
I0
tp562
a(I0
I0
tp563
a(I9
I0
tp564
a(I5
I0
tp565
asg39
S'0'
sg40
S''
sg42
g539
sg47
(lp566
(dp567
g50
Nsg51
Nsg52
Nsg53
(lp568
sg55
Nsg56
Nsg57
Nsg22
g412
sasg59
(dp569
g61
I0
sg62
I0
sg63
I0
ssg64
I00
sg65
g515
sg67
I103
sg68
(lp570
I1
aI0
aI0
aI0
aI0
aI0
aI0
asg70
g517
sg72
I4
sg73
I2
sg74
I0
sg75
I0
sg76
S'Mercenary'
p571
sg78
I0
sg79
S'enemy'
p572
sg81
Nsa(dp573
g7
S'Attack'
p574
sg9
(lp575
I70
aI35
aI10
aI40
aI40
aI30
aI15
aI20
aI0
aI0
asg11
I00
sg12
(lp576
(dp577
g15
Nsg16
I00
sg17
I00
sg18
I45
sg19
I00
sg20
I104
sg22
S'Iron Sword'
p578
sasg24
(lp579
I50
aI50
aI50
aI50
aI50
aI50
aI50
aI50
aI50
aI50
asg26
I5
sg27
(lp580
(I16
I0
tp581
a(I4
I0
tp582
a(I2
I0
tp583
a(I10
I0
tp584
a(I9
I0
tp585
a(I0
I0
tp586
a(I2
I0
tp587
a(I0
I0
tp588
a(I8
I0
tp589
a(I5
I0
tp590
asg39
S'0'
sg40
S''
sg42
g510
sg47
(lp591
(dp592
g50
Nsg51
Nsg52
Nsg53
(lp593
sg55
Nsg56
Nsg57
Nsg22
g58
sasg59
(dp594
g61
I0
sg62
I0
sg63
I0
ssg64
I00
sg65
g515
sg67
I104
sg68
(lp595
I1
aI0
aI0
aI0
aI0
aI0
aI0
asg70
g517
sg72
I0
sg73
I2
sg74
I0
sg75
I0
sg76
S'Myrmidon'
p596
sg78
I0
sg79
S'enemy'
p597
sg81
(I8
I13
tp598
sa(dp599
g7
S'Attack'
p600
sg9
(lp601
I75
aI35
aI5
aI40
aI28
aI30
aI15
aI15
aI0
aI0
asg11
I00
sg12
(lp602
(dp603
g15
Nsg16
I00
sg17
I00
sg18
I46
sg19
I00
sg20
I107
sg22
S'Iron Sword'
p604
sa(dp605
g15
Nsg16
I00
sg17
I00
sg18
I45
sg19
I00
sg20
I107
sg22
S'Iron Lance'
p606
sasg24
(lp607
I50
aI50
aI50
aI50
aI50
aI50
aI50
aI50
aI50
aI50
asg26
I20
sg27
(lp608
(I20
I0
tp609
a(I5
I0
tp610
a(I0
I0
tp611
a(I2
I0
tp612
a(I5
I0
tp613
a(I0
I0
tp614
a(I6
I0
tp615
a(I0
I0
tp616
a(I9
I0
tp617
a(I7
I0
tp618
asg39
S'0'
sg40
S''
sg42
g43
((lp619
g240
atRp620
sg47
(lp621
(dp622
g50
Nsg51
Nsg52
Nsg53
(lp623
sg55
Nsg56
Nsg57
Nsg22
g245
sasg59
(dp624
g61
I0
sg62
I0
sg63
I0
ssg64
I00
sg65
g515
sg67
I107
sg68
(lp625
I1
aI1
aI0
aI0
aI0
aI0
aI0
asg70
g517
sg72
I2
sg73
I1
sg74
I0
sg75
I0
sg76
S'Cavalier'
p626
sg78
I0
sg79
S'enemy'
p627
sg81
(I7
I14
tp628
sa(dp629
g7
S'SoftGuard'
p630
sg9
(lp631
I80
aI40
aI15
aI30
aI15
aI25
aI28
aI20
aI0
aI0
asg11
I00
sg12
(lp632
(dp633
g15
Nsg16
I00
sg17
I00
sg18
I45
sg19
I00
sg20
I108
sg22
S'Iron Lance'
p634
sa(dp635
g15
Nsg16
I00
sg17
I01
sg18
I1
sg19
I00
sg20
I108
sg22
S'Skeleton Key'
p636
sasg24
(lp637
I50
aI50
aI50
aI50
aI50
aI50
aI50
aI50
aI50
aI50
asg26
I18
sg27
(lp638
(I18
I0
tp639
a(I6
I0
tp640
a(I1
I0
tp641
a(I2
I0
tp642
a(I0
I0
tp643
a(I0
I0
tp644
a(I10
I0
tp645
a(I1
I0
tp646
a(I13
I0
tp647
a(I4
I0
tp648
asg39
S'0'
sg40
S''
sg42
g43
((ltRp649
sg47
(lp650
(dp651
g50
Nsg51
Nsg52
Nsg53
(lp652
sg55
Nsg56
Nsg57
Nsg22
g311
sasg59
(dp653
g61
I0
sg62
I0
sg63
I0
ssg64
I00
sg65
g515
sg67
I108
sg68
(lp654
I0
aI1
aI0
aI0
aI0
aI0
aI0
asg70
g517
sg72
I1
sg73
I3
sg74
I0
sg75
I0
sg76
S'Knight'
p655
sg78
I0
sg79
S'enemy'
p656
sg81
(I12
I6
tp657
sa(dp658
g7
S'Attack'
p659
sg9
(lp660
I80
aI40
aI15
aI40
aI32
aI30
aI18
aI20
aI0
aI0
asg11
I00
sg12
(lp661
(dp662
g15
Nsg16
I00
sg17
I00
sg18
I45
sg19
I00
sg20
I109
sg22
S'Iron Lance'
p663
sasg24
(lp664
I50
aI50
aI50
aI50
aI50
aI50
aI50
aI50
aI50
aI50
asg26
I19
sg27
(lp665
(I19
I0
tp666
a(I4
I0
tp667
a(I1
I0
tp668
a(I9
I0
tp669
a(I8
I0
tp670
a(I0
I0
tp671
a(I4
I0
tp672
a(I0
I0
tp673
a(I9
I0
tp674
a(I5
I0
tp675
asg39
S'0'
sg40
S''
sg42
g43
((ltRp676
sg47
(lp677
(dp678
g50
Nsg51
Nsg52
Nsg53
(lp679
sg55
Nsg56
Nsg57
Nsg22
S'Fleet_of_Foot'
p680
sasg59
(dp681
g61
I0
sg62
I0
sg63
I0
ssg64
I00
sg65
g515
sg67
I109
sg68
(lp682
I0
aI1
aI0
aI0
aI0
aI0
aI0
asg70
g517
sg72
I0
sg73
I2
sg74
I0
sg75
I0
sg76
S'Skirmisher'
p683
sg78
I0
sg79
S'enemy'
p684
sg81
(I12
I7
tp685
sa(dp686
g7
S'Attack'
p687
sg9
(lp688
I85
aI55
aI15
aI35
aI30
aI15
aI15
aI15
aI0
aI0
asg11
I00
sg12
(lp689
(dp690
g15
Nsg16
I00
sg17
I00
sg18
I45
sg19
I00
sg20
I110
sg22
S'Iron Axe'
p691
sasg24
(lp692
I50
aI50
aI50
aI50
aI50
aI50
aI50
aI50
aI50
aI50
asg26
I21
sg27
(lp693
(I21
I0
tp694
a(I6
I0
tp695
a(I1
I0
tp696
a(I2
I0
tp697
a(I4
I0
tp698
a(I0
I0
tp699
a(I2
I0
tp700
a(I0
I0
tp701
a(I11
I0
tp702
a(I5
I0
tp703
asg39
S'0'
sg40
S''
sg42
g43
((ltRp704
sg47
(lp705
(dp706
g50
Nsg51
Nsg52
Nsg53
(lp707
sg55
Nsg56
I0
sg57
Nsg22
g142
sasg59
(dp708
g61
I0
sg62
I0
sg63
I0
ssg64
I00
sg65
g515
sg67
I110
sg68
(lp709
I0
aI0
aI1
aI0
aI0
aI0
aI0
asg70
g517
sg72
I4
sg73
I2
sg74
I0
sg75
I0
sg76
S'Fighter'
p710
sg78
I0
sg79
S'enemy'
p711
sg81
(I20
I7
tp712
sa(dp713
g7
S'Attack'
p714
sg9
(lp715
I80
aI40
aI15
aI40
aI32
aI30
aI18
aI20
aI0
aI0
asg11
I00
sg12
(lp716
(dp717
g15
Nsg16
I00
sg17
I00
sg18
I44
sg19
I00
sg20
I111
sg22
S'Iron Sword'
p718
sasg24
(lp719
I50
aI50
aI50
aI50
aI50
aI50
aI50
aI50
aI50
aI50
asg26
I18
sg27
(lp720
(I18
I0
tp721
a(I4
I0
tp722
a(I1
I0
tp723
a(I8
I0
tp724
a(I8
I0
tp725
a(I0
I0
tp726
a(I4
I0
tp727
a(I0
I0
tp728
a(I9
I0
tp729
a(I5
I0
tp730
asg39
S'0'
sg40
S''
sg42
g539
sg47
(lp731
(dp732
g50
Nsg51
Nsg52
Nsg53
(lp733
sg55
Nsg56
Nsg57
Nsg22
g412
sasg59
(dp734
g61
I0
sg62
I0
sg63
I0
ssg64
I00
sg65
g515
sg67
I111
sg68
(lp735
I1
aI0
aI0
aI0
aI0
aI0
aI0
asg70
g517
sg72
I4
sg73
I1
sg74
I0
sg75
I0
sg76
S'Mercenary'
p736
sg78
I0
sg79
S'enemy'
p737
sg81
(I6
I17
tp738
sa(dp739
g7
S'Attack'
p740
sg9
(lp741
I80
aI40
aI15
aI40
aI32
aI30
aI18
aI20
aI0
aI0
asg11
I00
sg12
(lp742
(dp743
g15
Nsg16
I00
sg17
I00
sg18
I45
sg19
I00
sg20
I112
sg22
S'Iron Sword'
p744
sasg24
(lp745
I50
aI50
aI50
aI50
aI50
aI50
aI50
aI50
aI50
aI50
asg26
I7
sg27
(lp746
(I18
I0
tp747
a(I4
I0
tp748
a(I1
I0
tp749
a(I8
I0
tp750
a(I8
I0
tp751
a(I0
I0
tp752
a(I4
I0
tp753
a(I0
I0
tp754
a(I9
I0
tp755
a(I5
I0
tp756
asg39
S'0'
sg40
S''
sg42
g539
sg47
(lp757
(dp758
g50
Nsg51
Nsg52
Nsg53
(lp759
sg55
Nsg56
Nsg57
Nsg22
g412
sasg59
(dp760
g61
I0
sg62
I0
sg63
I0
ssg64
I00
sg65
g515
sg67
I112
sg68
(lp761
I1
aI0
aI0
aI0
aI0
aI0
aI0
asg70
g517
sg72
I4
sg73
I1
sg74
I0
sg75
I0
sg76
S'Mercenary'
p762
sg78
I0
sg79
S'enemy'
p763
sg81
(I16
I14
tp764
sa(dp765
g7
S'Attack'
p766
sg9
(lp767
I80
aI40
aI15
aI40
aI32
aI30
aI18
aI20
aI0
aI0
asg11
I00
sg12
(lp768
(dp769
g15
Nsg16
I00
sg17
I00
sg18
I43
sg19
I00
sg20
I113
sg22
S'Iron Sword'
p770
sasg24
(lp771
I50
aI50
aI50
aI50
aI50
aI50
aI50
aI50
aI50
aI50
asg26
I2
sg27
(lp772
(I18
I0
tp773
a(I4
I0
tp774
a(I1
I0
tp775
a(I8
I0
tp776
a(I8
I0
tp777
a(I0
I0
tp778
a(I4
I0
tp779
a(I0
I0
tp780
a(I9
I0
tp781
a(I5
I0
tp782
asg39
S'0'
sg40
S''
sg42
g539
sg47
(lp783
(dp784
g50
Nsg51
Nsg52
Nsg53
(lp785
sg55
Nsg56
Nsg57
Nsg22
g412
sa(dp786
g50
Nsg51
Nsg52
Nsg53
(lp787
sg55
g290
sg56
Nsg57
Nsg22
S'Provoke_Child'
p788
sasg59
(dp789
g61
I0
sg62
I0
sg63
I0
ssg64
I00
sg65
g515
sg67
I113
sg68
(lp790
I1
aI0
aI0
aI0
aI0
aI0
aI0
asg70
g517
sg72
I4
sg73
I1
sg74
I0
sg75
I0
sg76
S'Mercenary'
p791
sg78
I0
sg79
S'enemy'
p792
sg81
(I18
I15
tp793
sa(dp794
g7
S'Attack'
p795
sg9
(lp796
I80
aI40
aI15
aI40
aI32
aI30
aI18
aI20
aI0
aI0
asg11
I00
sg12
(lp797
(dp798
g15
Nsg16
I00
sg17
I00
sg18
I46
sg19
I00
sg20
I114
sg22
S'Iron Sword'
p799
sasg24
(lp800
I50
aI50
aI50
aI50
aI50
aI50
aI50
aI50
aI50
aI50
asg26
I19
sg27
(lp801
(I19
I0
tp802
a(I4
I0
tp803
a(I1
I0
tp804
a(I8
I0
tp805
a(I8
I0
tp806
a(I0
I0
tp807
a(I5
I0
tp808
a(I0
I0
tp809
a(I9
I0
tp810
a(I5
I0
tp811
asg39
S'0'
sg40
S''
sg42
g539
sg47
(lp812
(dp813
g50
Nsg51
Nsg52
Nsg53
(lp814
sg55
Nsg56
Nsg57
Nsg22
g412
sasg59
(dp815
g61
I0
sg62
I0
sg63
I0
ssg64
I00
sg65
g515
sg67
I114
sg68
(lp816
I1
aI0
aI0
aI0
aI0
aI0
aI0
asg70
g517
sg72
I4
sg73
I2
sg74
I0
sg75
I0
sg76
S'Mercenary'
p817
sg78
I0
sg79
S'enemy'
p818
sg81
Nsa(dp819
g7
S'Attack'
p820
sg9
(lp821
I80
aI40
aI15
aI40
aI32
aI30
aI18
aI20
aI0
aI0
asg11
I00
sg12
(lp822
(dp823
g15
Nsg16
I00
sg17
I00
sg18
I45
sg19
I00
sg20
I115
sg22
S'Iron Sword'
p824
sasg24
(lp825
I50
aI50
aI50
aI50
aI50
aI50
aI50
aI50
aI50
aI50
asg26
I19
sg27
(lp826
(I19
I0
tp827
a(I4
I0
tp828
a(I1
I0
tp829
a(I8
I0
tp830
a(I9
I0
tp831
a(I1
I0
tp832
a(I4
I0
tp833
a(I0
I0
tp834
a(I9
I0
tp835
a(I5
I0
tp836
asg39
S'0'
sg40
S''
sg42
g539
sg47
(lp837
(dp838
g50
Nsg51
Nsg52
Nsg53
(lp839
sg55
Nsg56
Nsg57
Nsg22
g412
sasg59
(dp840
g61
I0
sg62
I0
sg63
I0
ssg64
I00
sg65
g515
sg67
I115
sg68
(lp841
I1
aI0
aI0
aI0
aI0
aI0
aI0
asg70
g517
sg72
I4
sg73
I2
sg74
I0
sg75
I0
sg76
S'Mercenary'
p842
sg78
I0
sg79
S'enemy'
p843
sg81
(I9
I12
tp844
sa(dp845
g7
S'Attack'
p846
sg9
(lp847
I80
aI40
aI15
aI40
aI32
aI30
aI18
aI20
aI0
aI0
asg11
I00
sg12
(lp848
(dp849
g15
Nsg16
I00
sg17
I00
sg18
I46
sg19
I00
sg20
I116
sg22
S'Iron Sword'
p850
sasg24
(lp851
I50
aI50
aI50
aI50
aI50
aI50
aI50
aI50
aI50
aI50
asg26
I19
sg27
(lp852
(I19
I0
tp853
a(I4
I0
tp854
a(I1
I0
tp855
a(I8
I0
tp856
a(I9
I0
tp857
a(I0
I0
tp858
a(I4
I0
tp859
a(I0
I0
tp860
a(I9
I0
tp861
a(I5
I0
tp862
asg39
S'0'
sg40
S''
sg42
g539
sg47
(lp863
(dp864
g50
Nsg51
Nsg52
Nsg53
(lp865
sg55
Nsg56
Nsg57
Nsg22
g412
sasg59
(dp866
g61
I0
sg62
I0
sg63
I0
ssg64
I00
sg65
g515
sg67
I116
sg68
(lp867
I1
aI0
aI0
aI0
aI0
aI0
aI0
asg70
g517
sg72
I4
sg73
I2
sg74
I0
sg75
I0
sg76
S'Mercenary'
p868
sg78
I0
sg79
S'enemy'
p869
sg81
(I15
I12
tp870
sa(dp871
g7
S'Attack'
p872
sg9
(lp873
I75
aI35
aI5
aI40
aI28
aI30
aI15
aI15
aI0
aI0
asg11
I00
sg12
(lp874
(dp875
g15
Nsg16
I00
sg17
I00
sg18
I46
sg19
I00
sg20
I117
sg22
S'Iron Sword'
p876
sa(dp877
g15
Nsg16
I00
sg17
I00
sg18
I45
sg19
I00
sg20
I117
sg22
S'Iron Lance'
p878
sasg24
(lp879
I50
aI50
aI50
aI50
aI50
aI50
aI50
aI50
aI50
aI50
asg26
I20
sg27
(lp880
(I20
I0
tp881
a(I5
I0
tp882
a(I0
I0
tp883
a(I2
I0
tp884
a(I5
I0
tp885
a(I0
I0
tp886
a(I6
I0
tp887
a(I0
I0
tp888
a(I9
I0
tp889
a(I7
I0
tp890
asg39
S'0'
sg40
S''
sg42
g620
sg47
(lp891
(dp892
g50
Nsg51
Nsg52
Nsg53
(lp893
sg55
Nsg56
Nsg57
Nsg22
g245
sasg59
(dp894
g61
I0
sg62
I0
sg63
I0
ssg64
I00
sg65
g515
sg67
I117
sg68
(lp895
I1
aI1
aI0
aI0
aI0
aI0
aI0
asg70
g517
sg72
I2
sg73
I1
sg74
I0
sg75
I0
sg76
S'Cavalier'
p896
sg78
I0
sg79
S'enemy'
p897
sg81
(I16
I13
tp898
sa(dp899
g7
S'Attack'
p900
sg9
(lp901
I85
aI55
aI15
aI35
aI30
aI15
aI15
aI15
aI0
aI0
asg11
I00
sg12
(lp902
(dp903
g15
Nsg16
I00
sg17
I00
sg18
I45
sg19
I00
sg20
I118
sg22
S'Iron Axe'
p904
sasg24
(lp905
I50
aI50
aI50
aI50
aI50
aI50
aI50
aI50
aI50
aI50
asg26
I21
sg27
(lp906
(I21
I0
tp907
a(I6
I0
tp908
a(I0
I0
tp909
a(I3
I0
tp910
a(I4
I0
tp911
a(I0
I0
tp912
a(I2
I0
tp913
a(I0
I0
tp914
a(I11
I0
tp915
a(I5
I0
tp916
asg39
S'0'
sg40
S''
sg42
g704
sg47
(lp917
(dp918
g50
Nsg51
Nsg52
Nsg53
(lp919
sg55
Nsg56
I0
sg57
Nsg22
g142
sasg59
(dp920
g61
I0
sg62
I0
sg63
I0
ssg64
I00
sg65
g515
sg67
I118
sg68
(lp921
I0
aI0
aI1
aI0
aI0
aI0
aI0
asg70
g517
sg72
I4
sg73
I2
sg74
I0
sg75
I0
sg76
S'Fighter'
p922
sg78
I0
sg79
S'enemy'
p923
sg81
(I4
I7
tp924
sa(dp925
g7
S'Attack'
p926
sg9
(lp927
I70
aI35
aI10
aI40
aI40
aI30
aI15
aI20
aI0
aI0
asg11
I00
sg12
(lp928
(dp929
g15
Nsg16
I00
sg17
I00
sg18
I46
sg19
I00
sg20
I119
sg22
S'Iron Sword'
p930
sasg24
(lp931
I50
aI50
aI50
aI50
aI50
aI50
aI50
aI50
aI50
aI50
asg26
I17
sg27
(lp932
(I17
I0
tp933
a(I4
I0
tp934
a(I1
I0
tp935
a(I9
I0
tp936
a(I9
I0
tp937
a(I0
I0
tp938
a(I2
I0
tp939
a(I0
I0
tp940
a(I8
I0
tp941
a(I5
I0
tp942
asg39
S'0'
sg40
S''
sg42
g510
sg47
(lp943
(dp944
g50
Nsg51
Nsg52
Nsg53
(lp945
sg55
Nsg56
Nsg57
Nsg22
g58
sasg59
(dp946
g61
I0
sg62
I0
sg63
I0
ssg64
I00
sg65
g515
sg67
I119
sg68
(lp947
I1
aI0
aI0
aI0
aI0
aI0
aI0
asg70
g517
sg72
I0
sg73
I2
sg74
I0
sg75
I0
sg76
S'Myrmidon'
p948
sg78
I0
sg79
S'enemy'
p949
sg81
(I2
I9
tp950
sa(dp951
g7
S'Attack'
p952
sg9
(lp953
I80
aI50
aI15
aI30
aI20
aI25
aI12
aI15
aI0
aI0
asg11
I00
sg12
(lp954
(dp955
g15
Nsg16
I00
sg17
I00
sg18
I45
sg19
I00
sg20
I120
sg22
S'Iron Lance'
p956
sasg24
(lp957
I50
aI50
aI50
aI50
aI50
aI50
aI50
aI50
aI50
aI50
asg26
I21
sg27
(lp958
(I21
I0
tp959
a(I4
I0
tp960
a(I0
I0
tp961
a(I1
I0
tp962
a(I1
I0
tp963
a(I0
I0
tp964
a(I0
I0
tp965
a(I0
I0
tp966
a(I6
I0
tp967
a(I5
I0
tp968
asg39
S'0'
sg40
S''
sg42
g43
((ltRp969
sg47
(lp970
(dp971
g50
Nsg51
Nsg52
Nsg53
(lp972
sg55
Nsg56
Nsg57
Nsg22
g344
sasg59
(dp973
g61
I0
sg62
I0
sg63
I0
ssg64
I00
sg65
g515
sg67
I120
sg68
(lp974
I0
aI1
aI0
aI0
aI0
aI0
aI0
asg70
g517
sg72
I4
sg73
I2
sg74
I0
sg75
I0
sg76
S'Soldier'
p975
sg78
I0
sg79
S'enemy'
p976
sg81
(I3
I9
tp977
sa(dp978
g7
S'Attack'
p979
sg9
(lp980
I80
aI50
aI15
aI30
aI20
aI25
aI12
aI15
aI0
aI0
asg11
I00
sg12
(lp981
(dp982
g15
Nsg16
I00
sg17
I00
sg18
I45
sg19
I00
sg20
I121
sg22
S'Iron Lance'
p983
sasg24
(lp984
I50
aI50
aI50
aI50
aI50
aI50
aI50
aI50
aI50
aI50
asg26
I20
sg27
(lp985
(I20
I0
tp986
a(I3
I0
tp987
a(I0
I0
tp988
a(I0
I0
tp989
a(I1
I0
tp990
a(I0
I0
tp991
a(I0
I0
tp992
a(I0
I0
tp993
a(I6
I0
tp994
a(I5
I0
tp995
asg39
S'0'
sg40
S''
sg42
g969
sg47
(lp996
(dp997
g50
Nsg51
Nsg52
Nsg53
(lp998
sg55
Nsg56
Nsg57
Nsg22
g344
sasg59
(dp999
g61
I0
sg62
I0
sg63
I0
ssg64
I00
sg65
g515
sg67
I121
sg68
(lp1000
I0
aI1
aI0
aI0
aI0
aI0
aI0
asg70
g517
sg72
I4
sg73
I2
sg74
I0
sg75
I0
sg76
S'Soldier'
p1001
sg78
I0
sg79
S'enemy'
p1002
sg81
(I21
I9
tp1003
sa(dp1004
g7
S'Attack'
p1005
sg9
(lp1006
I70
aI35
aI10
aI40
aI40
aI30
aI15
aI20
aI0
aI0
asg11
I00
sg12
(lp1007
(dp1008
g15
Nsg16
I00
sg17
I00
sg18
I46
sg19
I00
sg20
I122
sg22
S'Iron Sword'
p1009
sasg24
(lp1010
I50
aI50
aI50
aI50
aI50
aI50
aI50
aI50
aI50
aI50
asg26
I16
sg27
(lp1011
(I16
I0
tp1012
a(I4
I0
tp1013
a(I1
I0
tp1014
a(I9
I0
tp1015
a(I9
I0
tp1016
a(I0
I0
tp1017
a(I2
I0
tp1018
a(I0
I0
tp1019
a(I8
I0
tp1020
a(I5
I0
tp1021
asg39
S'0'
sg40
S''
sg42
g510
sg47
(lp1022
(dp1023
g50
Nsg51
Nsg52
Nsg53
(lp1024
sg55
Nsg56
Nsg57
Nsg22
g58
sasg59
(dp1025
g61
I0
sg62
I0
sg63
I0
ssg64
I00
sg65
g515
sg67
I122
sg68
(lp1026
I1
aI0
aI0
aI0
aI0
aI0
aI0
asg70
g517
sg72
I0
sg73
I1
sg74
I0
sg75
I0
sg76
S'Myrmidon'
p1027
sg78
I0
sg79
S'enemy'
p1028
sg81
(I22
I9
tp1029
sasS'convoy'
p1030
(lp1031
sS'allreinforcements'
p1032
(dp1033
sS'base_conversations'
p1034
ccollections
OrderedDict
p1035
((ltRp1036
sS'phase_music'
p1037
(S'Fire Emblem IfFates + Awakening BGM - Conquest (CalmAblaze Mix Extended)'
p1038
S'Battle (Enemy Phase) - Fire Emblem Heroes Music Extended'
p1039
Ntp1040
sS'playtime'
p1041
I240816
sS'message'
p1042
(lp1043
sS'unlocked_lore'
p1044
(lp1045
sS'statistics'
p1046
(lp1047
sS'market_items'
p1048
g43
((ltRp1049
sS'support'
p1050
NsS'objective'
p1051
(S'Defeat Boss'
p1052
S'Defeat Boss'
p1053
S'Lord dies,OR,Party size falls below 5. Currently {gameStateObj.get_total_party_members()}'
p1054
tp1055
sS'turncount'
p1056
I2
sS'map'
p1057
(dp1058
S'HP'
p1059
(lp1060
sS'command_list'
p1061
(lp1062
ssS'state_list'
p1063
((lp1064
S'free'
p1065
aS'status'
p1066
aS'phase_change'
p1067
a(lp1068
S'pop'
p1069
atp1070
sS'prefabs'
p1071
(dp1072
sS'level_constants'
p1073
ccollections
Counter
p1074
((dtRp1075
sS'phase_info'
p1076
(I0
I1
tp1077
sS'factions'
p1078
(dp1079
S'Empire'
p1080
(S'Empire'
S'Empire'
S''
tp1081
sS'Resistance'
p1082
(g517
g515
S''
tp1083
ssS'triggers'
p1084
(dp1085
sS'mode'
p1086
(dp1087
S'autolevel_enemies'
p1088
S'0'
sS'death'
p1089
I1
sg70
S'Hard'
p1090
sS'color'
p1091
S'Green'
p1092
sS'player_bases'
p1093
(lp1094
I0
aI0
aI0
aI0
aI0
aI0
aI0
aI0
aI0
aI0
asS'growths'
p1095
I0
sS'rng'
p1096
S'true_hit'
p1097
sS'autolevel_players'
p1098
S'0'
sS'enemy_growths'
p1099
(lp1100
I0
aI0
aI0
aI0
aI0
aI0
aI0
aI0
aI0
aI0
asS'truelevel_enemies'
p1101
S'0'
sS'player_growths'
p1102
(lp1103
I0
aI0
aI0
aI0
aI0
aI0
aI0
aI0
aI0
aI0
asS'enemy_bases'
p1104
(lp1105
I0
aI0
aI0
aI0
aI0
aI0
aI0
aI0
aI0
aI0
asS'id'
p1106
S'1'
sS'tutorial'
p1107
S'1'
ssS'game_constants'
p1108
g1074
((dp1109
S'money'
p1110
I0
sg73
S'DEBUG'
p1111
stRp1112
s.