(dp1
S'talk_options'
p2
(lp3
sS'allunits'
p4
(lp5
(dp6
S'ai'
p7
S'None'
p8
sS'growths'
p9
(lp10
I80
aI35
aI0
aI55
aI55
aI30
aI20
aI20
aI0
aI0
asS'dead'
p11
I00
sS'items'
p12
(lp13
(dp14
S'c_uses'
p15
NsS'locked'
p16
I00
sS'droppable'
p17
I00
sS'uses'
p18
I40
sS'event_combat'
p19
I00
sS'owner'
p20
S'Jaeger'
p21
sS'id'
p22
S'Iron Sword'
p23
sasS'growth_points'
p24
(lp25
I50
aI50
aI50
aI50
aI50
aI50
aI50
aI50
aI50
aI50
asS'currenthp'
p26
I16
sS'stats'
p27
(lp28
(I16
I0
tp29
a(I8
I0
tp30
a(I2
I0
tp31
a(I13
I0
tp32
a(I14
I0
tp33
a(I7
I0
tp34
a(I5
I0
tp35
a(I2
I0
tp36
a(I8
I0
tp37
a(I5
I0
tp38
asS'event_id'
p39
S'0'
sS'desc'
p40
S'A strong-hearted renegade who often acts before he thinks.'
p41
sS'tags'
p42
c__builtin__
set
p43
((lp44
S'Lord'
p45
atRp46
sS'status_effects'
p47
(lp48
(dp49
S'count'
p50
NsS'time_left'
p51
NsS'upkeep_sc_count'
p52
NsS'children'
p53
(lp54
sS'parent_id'
p55
NsS'charge'
p56
NsS'rhythm_sc_count'
p57
Nsg22
S'Riposte'
p58
sasS'records'
p59
(dp60
S'damage'
p61
I32
sS'kills'
p62
I2
sS'healing'
p63
I0
ssS'finished'
p64
I00
sS'faction_icon'
p65
S'Neutral'
p66
sS'u_id'
p67
g21
sS'wexp'
p68
(lp69
I12
aI0
aI0
aI0
aI0
aI0
aI0
asS'name'
p70
S'Jaeger'
p71
sS'movement_group'
p72
I0
sS'level'
p73
I1
sS'gender'
p74
I2
sS'TRV'
p75
I0
sS'klass'
p76
S'Myrmidon'
p77
sS'exp'
p78
I71
sS'team'
p79
S'player'
p80
sS'position'
p81
(I9
I13
tp82
sa(dp83
g7
S'None'
p84
sg9
(lp85
I50
aI15
aI60
aI25
aI40
aI60
aI15
aI55
aI0
aI0
asg11
I01
sg12
(lp86
(dp87
g15
Nsg16
I00
sg17
I00
sg18
I28
sg19
I00
sg20
S'NANC'
p88
sg22
S'Heal'
p89
sa(dp90
g15
Nsg16
I00
sg17
I00
sg18
I27
sg19
I00
sg20
g88
sg22
S'Glimmer'
p91
sasg24
(lp92
I50
aI50
aI50
aI50
aI50
aI50
aI50
aI50
aI50
aI50
asg26
I18
sg27
(lp93
(I18
I0
tp94
a(I0
I0
tp95
a(I2
I0
tp96
a(I4
I0
tp97
a(I8
I0
tp98
a(I6
I0
tp99
a(I2
I0
tp100
a(I6
I0
tp101
a(I4
I0
tp102
a(I5
I0
tp103
asg39
S'0'
sg40
S'A shy but kind-hearted young woman. Has an affinity with the spiritual.'
p104
sg42
g43
((ltRp105
sg47
(lp106
(dp107
g50
Nsg51
Nsg52
Nsg53
(lp108
sg55
Nsg56
Nsg57
Nsg22
S'Healtouch'
p109
sasg59
(dp110
g61
I8
sg62
I0
sg63
I19
ssg64
I00
sg65
g66
sg67
g88
sg68
(lp111
I0
aI0
aI0
aI0
aI6
aI0
aI0
asg70
S'NANC'
p112
sg72
I5
sg73
I1
sg74
I7
sg75
I0
sg76
S'Cleric'
p113
sg78
I34
sg79
S'player'
p114
sg81
Nsa(dp115
g7
S'None'
p116
sg9
(lp117
I80
aI65
aI5
aI40
aI20
aI40
aI25
aI15
aI0
aI0
asg11
I00
sg12
(lp118
(dp119
g15
Nsg16
I00
sg17
I00
sg18
I39
sg19
I00
sg20
S'Kenboslice'
p120
sg22
S'Iron Axe'
p121
sa(dp122
g15
Nsg16
I00
sg17
I00
sg18
I3
sg19
I00
sg20
g120
sg22
S'Vulnerary'
p123
sasg24
(lp124
I50
aI50
aI50
aI50
aI50
aI50
aI50
aI50
aI50
aI50
asg26
I20
sg27
(lp125
(I21
I0
tp126
a(I8
I0
tp127
a(I0
I0
tp128
a(I7
I0
tp129
a(I7
I0
tp130
a(I3
I0
tp131
a(I5
I0
tp132
a(I1
I0
tp133
a(I11
I0
tp134
a(I5
I0
tp135
asg39
S'0'
sg40
S'A jovial former sailor. Always ready for a new adventure.'
p136
sg42
g43
((lp137
S'ActiveSkillCharged'
p138
atRp139
sg47
(lp140
(dp141
g50
Nsg51
Nsg52
Nsg53
(lp142
sg55
Nsg56
I15
sg57
Nsg22
S'Cleave'
p143
sasg59
(dp144
g61
I48
sg62
I2
sg63
I0
ssg64
I00
sg65
g66
sg67
g120
sg68
(lp145
I0
aI0
aI21
aI0
aI0
aI0
aI0
asg70
S'Kenboslice'
p146
sg72
I4
sg73
I1
sg74
I0
sg75
I0
sg76
S'Fighter'
p147
sg78
I81
sg79
S'player'
p148
sg81
(I12
I8
tp149
sa(dp150
g7
S'None'
p151
sg9
(lp152
I55
aI45
aI25
aI50
aI60
aI50
aI15
aI35
aI0
aI0
asg11
I00
sg12
(lp153
(dp154
g15
Nsg16
I00
sg17
I00
sg18
I42
sg19
I00
sg20
S'Olive'
p155
sg22
S'Willow Bow'
p156
sa(dp157
g15
Nsg16
I00
sg17
I00
sg18
I3
sg19
I00
sg20
g155
sg22
S'Vulnerary'
p158
sasg24
(lp159
I50
aI50
aI50
aI50
aI50
aI50
aI50
aI50
aI50
aI50
asg26
I5
sg27
(lp160
(I17
I0
tp161
a(I4
I0
tp162
a(I2
I0
tp163
a(I5
I0
tp164
a(I6
I0
tp165
a(I4
I0
tp166
a(I3
I0
tp167
a(I2
I0
tp168
a(I7
I0
tp169
a(I5
I0
tp170
asg39
S'0'
sg40
S'A quiet archer most at home in the wilderness.'
p171
sg42
g43
((ltRp172
sg47
(lp173
(dp174
g50
Nsg51
Nsg52
Nsg53
(lp175
sg55
Nsg56
Nsg57
Nsg22
S'Prescience'
p176
sasg59
(dp177
g61
I14
sg62
I0
sg63
I0
ssg64
I00
sg65
g66
sg67
g155
sg68
(lp178
I0
aI0
aI0
aI19
aI0
aI0
aI0
asg70
S'Olive'
p179
sg72
I0
sg73
I1
sg74
I6
sg75
I0
sg76
S'Archer'
p180
sg78
I32
sg79
S'player'
p181
sg81
(I16
I10
tp182
sa(dp183
g7
S'None'
p184
sg9
(lp185
I55
aI45
aI30
aI50
aI60
aI50
aI15
aI35
aI0
aI0
asg11
I00
sg12
(lp186
(dp187
g15
Nsg16
I00
sg17
I00
sg18
I26
sg19
I00
sg20
S'Mama Coco'
p188
sg22
S'Fire'
p189
sa(dp190
g15
Nsg16
I00
sg17
I00
sg18
I3
sg19
I00
sg20
g188
sg22
S'Vulnerary'
p191
sasg24
(lp192
I50
aI50
aI50
aI50
aI50
aI50
aI50
aI50
aI50
aI50
asg26
I11
sg27
(lp193
(I17
I0
tp194
a(I1
I0
tp195
a(I6
I0
tp196
a(I6
I0
tp197
a(I7
I0
tp198
a(I8
I0
tp199
a(I3
I0
tp200
a(I5
I2
tp201
a(I5
I0
tp202
a(I5
I0
tp203
asg39
S'0'
sg40
S'A forthright but elegant and refined sorceress.'
p204
sg42
g43
((ltRp205
sg47
(lp206
(dp207
g50
Nsg51
Nsg52
Nsg53
(lp208
sg55
Nsg56
Nsg57
Nsg22
S'Resistance +2'
p209
sa(dp210
g50
Nsg51
Nsg52
Nsg53
(lp211
sg55
Nsg56
Nsg57
Nsg22
S'Focus'
p212
sasg59
(dp213
g61
I23
sg62
I2
sg63
I0
ssg64
I00
sg65
g66
sg67
g188
sg68
(lp214
I0
aI0
aI0
aI0
aI0
aI10
aI0
asg70
S'Mama Coco'
p215
sg72
I5
sg73
I1
sg74
I5
sg75
I0
sg76
S'Mage'
p216
sg78
I71
sg79
S'player'
p217
sg81
(I19
I10
tp218
sa(dp219
g7
S'None'
p220
sg9
(lp221
I80
aI40
aI5
aI40
aI50
aI40
aI25
aI20
aI0
aI0
asg11
I00
sg12
(lp222
(dp223
g15
Nsg16
I00
sg17
I00
sg18
I41
sg19
I00
sg20
S'Sergio'
p224
sg22
S'Iron Lance'
p225
sa(dp226
g15
Nsg16
I00
sg17
I00
sg18
I46
sg19
I00
sg20
g224
sg22
S'Iron Sword'
p227
sasg24
(lp228
I50
aI50
aI50
aI50
aI50
aI50
aI50
aI50
aI50
aI50
asg26
I20
sg27
(lp229
(I20
I0
tp230
a(I7
I0
tp231
a(I1
I0
tp232
a(I5
I0
tp233
a(I7
I0
tp234
a(I2
I0
tp235
a(I6
I0
tp236
a(I1
I0
tp237
a(I9
I0
tp238
a(I7
I0
tp239
asg39
S'0'
sg40
S"A disgraced Imperial knight now in Althea's service."
p240
sg42
g43
((lp241
S'Mounted'
p242
atRp243
sg47
(lp244
(dp245
g50
Nsg51
Nsg52
Nsg53
(lp246
sg55
Nsg56
Nsg57
Nsg22
S'Canto'
p247
sasg59
(dp248
g61
I39
sg62
I2
sg63
I0
ssg64
I00
sg65
g66
sg67
g224
sg68
(lp249
I11
aI20
aI0
aI0
aI0
aI0
aI0
asg70
S'Sergio'
p250
sg72
I2
sg73
I1
sg74
I0
sg75
I0
sg76
S'Cavalier'
p251
sg78
I80
sg79
S'player'
p252
sg81
(I9
I11
tp253
sa(dp254
g7
S'None'
p255
sg9
(lp256
I75
aI40
aI20
aI40
aI65
aI45
aI25
aI20
aI0
aI0
asg11
I00
sg12
(lp257
(dp258
g15
Nsg16
I00
sg17
I00
sg18
I42
sg19
I00
sg20
S'beautifulcody'
p259
sg22
S'Iron Sword'
p260
sa(dp261
g15
Nsg16
I00
sg17
I00
sg18
I3
sg19
I00
sg20
g259
sg22
S'Vulnerary'
p262
sasg24
(lp263
I50
aI50
aI50
aI50
aI50
aI50
aI50
aI50
aI50
aI50
asg26
I18
sg27
(lp264
(I18
I0
tp265
a(I4
I0
tp266
a(I2
I0
tp267
a(I4
I0
tp268
a(I10
I0
tp269
a(I8
I0
tp270
a(I3
I0
tp271
a(I1
I0
tp272
a(I6
I0
tp273
a(I6
I0
tp274
asg39
S'0'
sg40
S'An energetic thief with a kleptomanic streak.'
p275
sg42
g43
((ltRp276
sg47
(lp277
(dp278
g50
Nsg51
Nsg52
Nsg53
(lp279
sg55
Nsg56
Nsg57
Nsg22
S'Locktouch'
p280
sasg59
(dp281
g61
I18
sg62
I2
sg63
I0
ssg64
I00
sg65
g66
sg67
g259
sg68
(lp282
I19
aI0
aI0
aI0
aI0
aI0
aI0
asg70
S'beautifulcody'
p283
sg72
I0
sg73
I1
sg74
I5
sg75
I0
sg76
S'Thief'
p284
sg78
I70
sg79
S'player'
p285
sg81
(I7
I8
tp286
sa(dp287
g7
S'None'
p288
sg9
(lp289
I90
aI45
aI15
aI35
aI30
aI30
aI55
aI20
aI0
aI0
asg11
I00
sg12
(lp290
(dp291
g15
Nsg16
I00
sg17
I00
sg18
I43
sg19
I00
sg20
S'Sir Carter'
p292
sg22
S'Iron Lance'
p293
sa(dp294
g15
Nsg16
I00
sg17
I00
sg18
I3
sg19
I00
sg20
g292
sg22
S'Vulnerary'
p295
sasg24
(lp296
I50
aI50
aI50
aI50
aI50
aI50
aI50
aI50
aI50
aI50
asg26
I25
sg27
(lp297
(I25
I0
tp298
a(I9
I0
tp299
a(I0
I0
tp300
a(I6
I0
tp301
a(I3
I0
tp302
a(I3
I0
tp303
a(I9
I0
tp304
a(I3
I0
tp305
a(I13
I0
tp306
a(I4
I0
tp307
asg39
S'0'
sg40
S'An avid scholar. Interested in esoteric philosophy.'
p308
sg42
g43
((ltRp309
sg47
(lp310
(dp311
g50
Nsg51
Nsg52
Nsg53
(lp312
I113
aI112
asg55
Nsg56
Nsg57
Nsg22
S'Provoke'
p313
sasg59
(dp314
g61
I22
sg62
I0
sg63
I0
ssg64
I00
sg65
g66
sg67
g292
sg68
(lp315
I0
aI18
aI0
aI0
aI0
aI0
aI0
asg70
S'Sir Carter'
p316
sg72
I1
sg73
I1
sg74
I0
sg75
I0
sg76
S'Knight'
p317
sg78
I20
sg79
S'player'
p318
sg81
(I15
I8
tp319
sa(dp320
g7
S'None'
p321
sg9
(lp322
I80
aI45
aI15
aI35
aI25
aI25
aI45
aI30
aI0
aI0
asg11
I01
sg12
(lp323
(dp324
g15
Nsg16
I00
sg17
I00
sg18
I44
sg19
I00
sg20
S'Not Tracer'
p325
sg22
S'Iron Lance'
p326
sa(dp327
g15
Nsg16
I00
sg17
I00
sg18
I20
sg19
I00
sg20
g325
sg22
S'Javelin'
p328
sasg24
(lp329
I50
aI50
aI50
aI50
aI50
aI50
aI50
aI50
aI50
aI50
asg26
I22
sg27
(lp330
(I22
I0
tp331
a(I4
I0
tp332
a(I0
I0
tp333
a(I1
I0
tp334
a(I1
I0
tp335
a(I1
I0
tp336
a(I3
I0
tp337
a(I1
I0
tp338
a(I6
I0
tp339
a(I5
I0
tp340
asg39
S'0'
sg40
S'A moody, sarcastic soldier.'
p341
sg42
g43
((ltRp342
sg47
(lp343
(dp344
g50
Nsg51
Nsg52
Nsg53
(lp345
sg55
Nsg56
Nsg57
Nsg22
S'Synergy'
p346
sasg59
(dp347
g61
I8
sg62
I0
sg63
I0
ssg64
I00
sg65
g66
sg67
g325
sg68
(lp348
I0
aI22
aI0
aI0
aI0
aI0
aI0
asg70
S'Not Tracer'
p349
sg72
I4
sg73
I1
sg74
I5
sg75
I0
sg76
S'Soldier'
p350
sg78
I10
sg79
S'player'
p351
sg81
Nsa(dp352
g7
S'None'
p353
sg9
(lp354
I65
aI15
aI35
aI45
aI55
aI55
aI40
aI65
aI0
aI0
asg11
I00
sg12
(lp355
(dp356
g15
Nsg16
I00
sg17
I00
sg18
I13
sg19
I00
sg20
S'T Rob'
p357
sg22
S'Mend'
p358
sa(dp359
g15
Nsg16
I00
sg17
I00
sg18
I16
sg19
I00
sg20
g357
sg22
S'Shine'
p360
sa(dp361
g15
Nsg16
I00
sg17
I00
sg18
I9
sg19
I00
sg20
g357
sg22
S'Fortune'
p362
sasg24
(lp363
I50
aI50
aI50
aI50
aI50
aI50
aI50
aI50
aI50
aI50
asg26
I18
sg27
(lp364
(I18
I0
tp365
a(I3
I0
tp366
a(I7
I0
tp367
a(I8
I0
tp368
a(I10
I0
tp369
a(I8
I0
tp370
a(I4
I0
tp371
a(I8
I0
tp372
a(I4
I0
tp373
a(I5
I0
tp374
asg39
S'0'
sg40
S"The resistance's leader. Ambitious and inquisitive."
p375
sg42
g43
((ltRp376
sg47
(lp377
(dp378
g50
Nsg51
Nsg52
Nsg53
(lp379
sg55
Nsg56
Nsg57
Nsg22
S'Inspiration'
p380
sasg59
(dp381
g61
I48
sg62
I2
sg63
I29
ssg64
I00
sg65
g66
sg67
g357
sg68
(lp382
I0
aI0
aI0
aI0
aI38
aI0
aI0
asg70
S'T Rob'
p383
sg72
I5
sg73
I2
sg74
I0
sg75
I0
sg76
S'Tactician'
p384
sg78
I19
sg79
S'player'
p385
sg81
(I9
I12
tp386
sa(dp387
g7
S'None'
p388
sg9
(lp389
I90
aI45
aI5
aI40
aI30
aI30
aI35
aI25
aI0
aI0
asg11
I00
sg12
(lp390
(dp391
g15
Nsg16
I00
sg17
I00
sg18
I15
sg19
I00
sg20
S'Dornstar'
p392
sg22
S'Rusted Sword'
p393
sa(dp394
g15
Nsg16
I00
sg17
I00
sg18
I3
sg19
I00
sg20
g392
sg22
S'Vulnerary'
p395
sasg24
(lp396
I50
aI50
aI50
aI50
aI50
aI50
aI50
aI50
aI50
aI50
asg26
I22
sg27
(lp397
(I20
I5
tp398
a(I9
I0
tp399
a(I0
I0
tp400
a(I11
I0
tp401
a(I9
I0
tp402
a(I4
I0
tp403
a(I5
I0
tp404
a(I2
I0
tp405
a(I9
I0
tp406
a(I5
I0
tp407
asg39
S'0'
sg40
S'A troubled wandererer with a mysterious past.'
p408
sg42
g43
((ltRp409
sg47
(lp410
(dp411
g50
Nsg51
Nsg52
Nsg53
(lp412
sg55
Nsg56
Nsg57
Nsg22
S'Initiative'
p413
sa(dp414
g50
Nsg51
Nsg52
Nsg53
(lp415
sg55
Nsg56
Nsg57
Nsg22
S'fMaximum HP +5'
p416
sasg59
(dp417
g61
I32
sg62
I2
sg63
I0
ssg64
I00
sg65
g66
sg67
g392
sg68
(lp418
I45
aI0
aI0
aI0
aI0
aI0
aI0
asg70
S'Dornstar'
p419
sg72
I4
sg73
I1
sg74
I0
sg75
I0
sg76
S'Mercenary'
p420
sg78
I71
sg79
S'player'
p421
sg81
(I16
I8
tp422
sa(dp423
g7
S'None'
p424
sg9
(lp425
I70
aI5
aI50
aI40
aI35
aI20
aI10
aI45
aI0
aI0
asg11
I00
sg12
(lp426
(dp427
g15
Nsg16
I00
sg17
I00
sg18
I25
sg19
I00
sg20
S'Leech'
p428
sg22
S'Flux'
p429
sa(dp430
g15
Nsg16
I00
sg17
I00
sg18
I9
sg19
I00
sg20
g428
sg22
S'Scathe'
p431
sa(dp432
g15
Nsg16
I00
sg17
I00
sg18
I3
sg19
I00
sg20
g428
sg22
S'Spiritbane'
p433
sasg24
(lp434
I50
aI50
aI50
aI50
aI50
aI50
aI50
aI50
aI50
aI50
asg26
I22
sg27
(lp435
(I23
I0
tp436
a(I1
I0
tp437
a(I10
I0
tp438
a(I9
I0
tp439
a(I5
I2
tp440
a(I0
I0
tp441
a(I2
I0
tp442
a(I7
I0
tp443
a(I7
I0
tp444
a(I4
I0
tp445
asg39
S'0'
sg40
S'A scheming diplomat from the Confederacy.'
p446
sg42
g43
((ltRp447
sg47
(lp448
(dp449
g50
Nsg51
Nsg52
Nsg53
(lp450
sg55
Nsg56
Nsg57
Nsg22
S'Hex'
p451
sa(dp452
g50
Nsg51
Nsg52
Nsg53
(lp453
sg55
Nsg56
Nsg57
Nsg22
S'fSpeed +2'
p454
sasg59
(dp455
g61
I49
sg62
I4
sg63
I0
ssg64
I00
sg65
g66
sg67
g428
sg68
(lp456
I0
aI0
aI0
aI0
aI0
aI0
aI41
asg70
S'Leech'
p457
sg72
I5
sg73
I2
sg74
I5
sg75
I0
sg76
S'Shaman'
p458
sg78
I30
sg79
S'player'
p459
sg81
(I17
I10
tp460
sa(dp461
g7
S'None'
p462
sg9
(lp463
I100
aI50
aI0
aI50
aI0
aI0
aI0
aI0
aI0
aI0
asg11
I00
sg12
(lp464
(dp465
g15
Nsg16
I00
sg17
I00
sg18
I20
sg19
I00
sg20
S'Sidney'
p466
sg22
S'Hand Axe'
p467
sa(dp468
g15
Nsg16
I00
sg17
I00
sg18
I45
sg19
I00
sg20
g466
sg22
S'Iron Axe'
p469
sasg24
(lp470
I50
aI50
aI50
aI50
aI50
aI50
aI50
aI50
aI50
aI50
asg26
I30
sg27
(lp471
(I30
I0
tp472
a(I12
I0
tp473
a(I0
I0
tp474
a(I5
I0
tp475
a(I5
I0
tp476
a(I0
I0
tp477
a(I5
I0
tp478
a(I2
I0
tp479
a(I11
I0
tp480
a(I5
I0
tp481
asg39
S'0'
sg40
S'A cruel Imperial lieutenant.'
p482
sg42
g43
((ltRp483
sg47
(lp484
(dp485
g50
Nsg51
Nsg52
Nsg53
(lp486
sg55
Nsg56
I0
sg57
Nsg22
g143
sasg59
(dp487
g61
I0
sg62
I0
sg63
I0
ssg64
I00
sg65
g66
sg67
g466
sg68
(lp488
I0
aI0
aI1
aI0
aI0
aI0
aI0
asg70
S'Sidney'
p489
sg72
I4
sg73
I4
sg74
I0
sg75
I0
sg76
S'Fighter'
p490
sg78
I0
sg79
S'enemy'
p491
sg81
(I12
I2
tp492
sa(dp493
g7
S'Attack'
p494
sg9
(lp495
I80
aI40
aI15
aI40
aI32
aI30
aI18
aI20
aI0
aI0
asg11
I00
sg12
(lp496
(dp497
g15
Nsg16
I00
sg17
I00
sg18
I46
sg19
I00
sg20
I103
sg22
S'Iron Sword'
p498
sasg24
(lp499
I50
aI50
aI50
aI50
aI50
aI50
aI50
aI50
aI50
aI50
asg26
I18
sg27
(lp500
(I18
I0
tp501
a(I4
I0
tp502
a(I1
I0
tp503
a(I8
I0
tp504
a(I8
I0
tp505
a(I0
I0
tp506
a(I4
I0
tp507
a(I0
I0
tp508
a(I9
I0
tp509
a(I5
I0
tp510
asg39
S'0'
sg40
S''
sg42
g43
((ltRp511
sg47
(lp512
(dp513
g50
Nsg51
Nsg52
Nsg53
(lp514
sg55
Nsg56
Nsg57
Nsg22
g413
sasg59
(dp515
g61
I0
sg62
I0
sg63
I0
ssg64
I00
sg65
S'Resistance'
p516
sg67
I103
sg68
(lp517
I1
aI0
aI0
aI0
aI0
aI0
aI0
asg70
S'Resistance'
p518
sg72
I4
sg73
I2
sg74
I0
sg75
I0
sg76
S'Mercenary'
p519
sg78
I0
sg79
S'enemy'
p520
sg81
Nsa(dp521
g7
S'SoftGuard'
p522
sg9
(lp523
I80
aI40
aI15
aI30
aI15
aI25
aI28
aI20
aI0
aI0
asg11
I00
sg12
(lp524
(dp525
g15
Nsg16
I00
sg17
I00
sg18
I45
sg19
I00
sg20
I108
sg22
S'Iron Lance'
p526
sa(dp527
g15
Nsg16
I00
sg17
I01
sg18
I1
sg19
I00
sg20
I108
sg22
S'Skeleton Key'
p528
sasg24
(lp529
I50
aI50
aI50
aI50
aI50
aI50
aI50
aI50
aI50
aI50
asg26
I18
sg27
(lp530
(I18
I0
tp531
a(I6
I0
tp532
a(I1
I0
tp533
a(I2
I0
tp534
a(I0
I0
tp535
a(I0
I0
tp536
a(I10
I0
tp537
a(I1
I0
tp538
a(I13
I0
tp539
a(I4
I0
tp540
asg39
S'0'
sg40
S''
sg42
g43
((ltRp541
sg47
(lp542
(dp543
g50
Nsg51
Nsg52
Nsg53
(lp544
sg55
Nsg56
Nsg57
Nsg22
g313
sasg59
(dp545
g61
I0
sg62
I0
sg63
I0
ssg64
I00
sg65
g516
sg67
I108
sg68
(lp546
I0
aI1
aI0
aI0
aI0
aI0
aI0
asg70
g518
sg72
I1
sg73
I3
sg74
I0
sg75
I0
sg76
S'Knight'
p547
sg78
I0
sg79
S'enemy'
p548
sg81
(I12
I6
tp549
sa(dp550
g7
S'Attack'
p551
sg9
(lp552
I80
aI40
aI15
aI40
aI32
aI30
aI18
aI20
aI0
aI0
asg11
I00
sg12
(lp553
(dp554
g15
Nsg16
I00
sg17
I00
sg18
I46
sg19
I00
sg20
I114
sg22
S'Iron Sword'
p555
sasg24
(lp556
I50
aI50
aI50
aI50
aI50
aI50
aI50
aI50
aI50
aI50
asg26
I19
sg27
(lp557
(I19
I0
tp558
a(I4
I0
tp559
a(I1
I0
tp560
a(I8
I0
tp561
a(I8
I0
tp562
a(I0
I0
tp563
a(I5
I0
tp564
a(I0
I0
tp565
a(I9
I0
tp566
a(I5
I0
tp567
asg39
S'0'
sg40
S''
sg42
g511
sg47
(lp568
(dp569
g50
Nsg51
Nsg52
Nsg53
(lp570
sg55
Nsg56
Nsg57
Nsg22
g413
sasg59
(dp571
g61
I0
sg62
I0
sg63
I0
ssg64
I00
sg65
g516
sg67
I114
sg68
(lp572
I1
aI0
aI0
aI0
aI0
aI0
aI0
asg70
g518
sg72
I4
sg73
I2
sg74
I0
sg75
I0
sg76
S'Mercenary'
p573
sg78
I0
sg79
S'enemy'
p574
sg81
Nsa(dp575
g7
S'Attack'
p576
sg9
(lp577
I70
aI35
aI10
aI40
aI40
aI30
aI15
aI20
aI0
aI0
asg11
I00
sg12
(lp578
(dp579
g15
Nsg16
I00
sg17
I00
sg18
I46
sg19
I00
sg20
I119
sg22
S'Iron Sword'
p580
sasg24
(lp581
I50
aI50
aI50
aI50
aI50
aI50
aI50
aI50
aI50
aI50
asg26
I17
sg27
(lp582
(I17
I0
tp583
a(I4
I0
tp584
a(I1
I0
tp585
a(I9
I0
tp586
a(I9
I0
tp587
a(I0
I0
tp588
a(I2
I0
tp589
a(I0
I0
tp590
a(I8
I0
tp591
a(I5
I0
tp592
asg39
S'0'
sg40
S''
sg42
g43
((ltRp593
sg47
(lp594
(dp595
g50
Nsg51
Nsg52
Nsg53
(lp596
sg55
Nsg56
Nsg57
Nsg22
g58
sasg59
(dp597
g61
I0
sg62
I0
sg63
I0
ssg64
I00
sg65
g516
sg67
I119
sg68
(lp598
I1
aI0
aI0
aI0
aI0
aI0
aI0
asg70
g518
sg72
I0
sg73
I2
sg74
I0
sg75
I0
sg76
S'Myrmidon'
p599
sg78
I0
sg79
S'enemy'
p600
sg81
(I5
I11
tp601
sasS'convoy'
p602
(lp603
sS'allreinforcements'
p604
(dp605
sS'base_conversations'
p606
ccollections
OrderedDict
p607
((ltRp608
sS'phase_music'
p609
(S'Fire Emblem IfFates + Awakening BGM - Conquest (CalmAblaze Mix Extended)'
p610
S'Battle (Enemy Phase) - Fire Emblem Heroes Music Extended'
p611
Ntp612
sS'playtime'
p613
I1082352
sS'message'
p614
(lp615
sS'unlocked_lore'
p616
(lp617
sS'statistics'
p618
(lp619
sS'market_items'
p620
g43
((ltRp621
sS'support'
p622
NsS'objective'
p623
(S'Defeat Boss'
p624
S'Defeat Boss'
p625
S'Lord dies,OR,Party size falls below 5. Currently {gameStateObj.get_total_party_members()}'
p626
tp627
sS'turncount'
p628
I5
sS'map'
p629
(dp630
S'HP'
p631
(lp632
sS'command_list'
p633
(lp634
ssS'state_list'
p635
((lp636
g7
aS'status'
p637
aS'phase_change'
p638
a(lp639
S'pop'
p640
atp641
sS'prefabs'
p642
(dp643
sS'level_constants'
p644
ccollections
Counter
p645
((dtRp646
sS'phase_info'
p647
(I1
I0
tp648
sS'factions'
p649
(dp650
S'Empire'
p651
(S'Empire'
S'Empire'
S''
tp652
sS'Resistance'
p653
(g518
g516
S''
tp654
ssS'triggers'
p655
(dp656
sS'mode'
p657
(dp658
S'autolevel_enemies'
p659
S'0'
sS'death'
p660
I1
sg70
S'Hard'
p661
sS'color'
p662
S'Green'
p663
sS'player_bases'
p664
(lp665
I0
aI0
aI0
aI0
aI0
aI0
aI0
aI0
aI0
aI0
asS'growths'
p666
I0
sS'rng'
p667
S'true_hit'
p668
sS'autolevel_players'
p669
S'0'
sS'enemy_growths'
p670
(lp671
I0
aI0
aI0
aI0
aI0
aI0
aI0
aI0
aI0
aI0
asS'truelevel_enemies'
p672
S'0'
sS'player_growths'
p673
(lp674
I0
aI0
aI0
aI0
aI0
aI0
aI0
aI0
aI0
aI0
asS'enemy_bases'
p675
(lp676
I0
aI0
aI0
aI0
aI0
aI0
aI0
aI0
aI0
aI0
asS'id'
p677
S'1'
sS'tutorial'
p678
S'1'
ssS'game_constants'
p679
g645
((dp680
S'money'
p681
I0
sg73
S'DEBUG'
p682
stRp683
s.